Time	Cycle	PC	Insn	Decoded instruction	Register and memory contents
             20	         6	00100080	7390906f	jal	x0,109fb8	  x0=0x00000000
             22	         7	00109fb8	00000093	addi	x1,x0,0	  x0:0x00000000  x1=0x00000000
             24	         8	00109fbc	00008113	addi	x2,x1,0	  x1:0x00000000  x2=0x00000000
             26	         9	00109fc0	00008193	addi	x3,x1,0	  x1:0x00000000  x3=0x00000000
             28	        10	00109fc4	00008213	addi	x4,x1,0	  x1:0x00000000  x4=0x00000000
             30	        11	00109fc8	00008293	addi	x5,x1,0	  x1:0x00000000  x5=0x00000000
             32	        12	00109fcc	00008313	addi	x6,x1,0	  x1:0x00000000  x6=0x00000000
             34	        13	00109fd0	00008393	addi	x7,x1,0	  x1:0x00000000  x7=0x00000000
             36	        14	00109fd4	00008413	addi	x8,x1,0	  x1:0x00000000  x8=0x00000000
             38	        15	00109fd8	00008493	addi	x9,x1,0	  x1:0x00000000  x9=0x00000000
             40	        16	00109fdc	00008513	addi	x10,x1,0	  x1:0x00000000 x10=0x00000000
             42	        17	00109fe0	00008593	addi	x11,x1,0	  x1:0x00000000 x11=0x00000000
             44	        18	00109fe4	00008613	addi	x12,x1,0	  x1:0x00000000 x12=0x00000000
             46	        19	00109fe8	00008693	addi	x13,x1,0	  x1:0x00000000 x13=0x00000000
             48	        20	00109fec	00008713	addi	x14,x1,0	  x1:0x00000000 x14=0x00000000
             50	        21	00109ff0	00008793	addi	x15,x1,0	  x1:0x00000000 x15=0x00000000
             52	        22	00109ff4	00008813	addi	x16,x1,0	  x1:0x00000000 x16=0x00000000
             54	        23	00109ff8	00008893	addi	x17,x1,0	  x1:0x00000000 x17=0x00000000
             56	        24	00109ffc	00008913	addi	x18,x1,0	  x1:0x00000000 x18=0x00000000
             58	        25	0010a000	00008993	addi	x19,x1,0	  x1:0x00000000 x19=0x00000000
             60	        26	0010a004	00008a13	addi	x20,x1,0	  x1:0x00000000 x20=0x00000000
             62	        27	0010a008	00008a93	addi	x21,x1,0	  x1:0x00000000 x21=0x00000000
             64	        28	0010a00c	00008b13	addi	x22,x1,0	  x1:0x00000000 x22=0x00000000
             66	        29	0010a010	00008b93	addi	x23,x1,0	  x1:0x00000000 x23=0x00000000
             68	        30	0010a014	00008c13	addi	x24,x1,0	  x1:0x00000000 x24=0x00000000
             70	        31	0010a018	00008c93	addi	x25,x1,0	  x1:0x00000000 x25=0x00000000
             72	        32	0010a01c	00008d13	addi	x26,x1,0	  x1:0x00000000 x26=0x00000000
             74	        33	0010a020	00008d93	addi	x27,x1,0	  x1:0x00000000 x27=0x00000000
             76	        34	0010a024	00008e13	addi	x28,x1,0	  x1:0x00000000 x28=0x00000000
             78	        35	0010a028	00008e93	addi	x29,x1,0	  x1:0x00000000 x29=0x00000000
             80	        36	0010a02c	00008f13	addi	x30,x1,0	  x1:0x00000000 x30=0x00000000
             82	        37	0010a030	00008f93	addi	x31,x1,0	  x1:0x00000000 x31=0x00000000
             84	        38	0010a034	0002e117	auipc	x2,0x2e	  x2=0x00138034
             86	        39	0010a038	fcc10113	addi	x2,x2,-52	  x2:0x00138034  x2=0x00138000
             88	        40	0010a03c	00004d17	auipc	x26,0x4	 x26=0x0010e03c
             90	        41	0010a040	2ccd0d13	addi	x26,x26,716	 x26:0x0010e03c x26=0x0010e308
             92	        42	0010a044	00004d97	auipc	x27,0x4	 x27=0x0010e044
             94	        43	0010a048	33cd8d93	addi	x27,x27,828	 x27:0x0010e044 x27=0x0010e380
             96	        44	0010a04c	01bd5863	bge	x26,x27,10a05c	 x26:0x0010e308 x27:0x0010e380
             98	        45	0010a050	000d2023	sw	x0,0(x26)	 x26:0x0010e308  x0:0x00000000 PA:0x0010e308 store:0x00000000
            100	        46	0010a054	004d0d13	addi	x26,x26,4	 x26:0x0010e308 x26=0x0010e30c
            102	        47	0010a058	ffaddce3	bge	x27,x26,10a050	 x27:0x0010e380 x26:0x0010e30c
            104	        48	0010a050	000d2023	sw	x0,0(x26)	 x26:0x0010e30c  x0:0x00000000 PA:0x0010e30c store:0x00000000
            106	        49	0010a054	004d0d13	addi	x26,x26,4	 x26:0x0010e30c x26=0x0010e310
            108	        50	0010a058	ffaddce3	bge	x27,x26,10a050	 x27:0x0010e380 x26:0x0010e310
            110	        51	0010a050	000d2023	sw	x0,0(x26)	 x26:0x0010e310  x0:0x00000000 PA:0x0010e310 store:0x00000000
            112	        52	0010a054	004d0d13	addi	x26,x26,4	 x26:0x0010e310 x26=0x0010e314
            114	        53	0010a058	ffaddce3	bge	x27,x26,10a050	 x27:0x0010e380 x26:0x0010e314
            116	        54	0010a050	000d2023	sw	x0,0(x26)	 x26:0x0010e314  x0:0x00000000 PA:0x0010e314 store:0x00000000
            118	        55	0010a054	004d0d13	addi	x26,x26,4	 x26:0x0010e314 x26=0x0010e318
            120	        56	0010a058	ffaddce3	bge	x27,x26,10a050	 x27:0x0010e380 x26:0x0010e318
            122	        57	0010a050	000d2023	sw	x0,0(x26)	 x26:0x0010e318  x0:0x00000000 PA:0x0010e318 store:0x00000000
            124	        58	0010a054	004d0d13	addi	x26,x26,4	 x26:0x0010e318 x26=0x0010e31c
            126	        59	0010a058	ffaddce3	bge	x27,x26,10a050	 x27:0x0010e380 x26:0x0010e31c
            128	        60	0010a050	000d2023	sw	x0,0(x26)	 x26:0x0010e31c  x0:0x00000000 PA:0x0010e31c store:0x00000000
            130	        61	0010a054	004d0d13	addi	x26,x26,4	 x26:0x0010e31c x26=0x0010e320
            132	        62	0010a058	ffaddce3	bge	x27,x26,10a050	 x27:0x0010e380 x26:0x0010e320
            134	        63	0010a050	000d2023	sw	x0,0(x26)	 x26:0x0010e320  x0:0x00000000 PA:0x0010e320 store:0x00000000
            136	        64	0010a054	004d0d13	addi	x26,x26,4	 x26:0x0010e320 x26=0x0010e324
            138	        65	0010a058	ffaddce3	bge	x27,x26,10a050	 x27:0x0010e380 x26:0x0010e324
            140	        66	0010a050	000d2023	sw	x0,0(x26)	 x26:0x0010e324  x0:0x00000000 PA:0x0010e324 store:0x00000000
            142	        67	0010a054	004d0d13	addi	x26,x26,4	 x26:0x0010e324 x26=0x0010e328
            144	        68	0010a058	ffaddce3	bge	x27,x26,10a050	 x27:0x0010e380 x26:0x0010e328
            146	        69	0010a050	000d2023	sw	x0,0(x26)	 x26:0x0010e328  x0:0x00000000 PA:0x0010e328 store:0x00000000
            148	        70	0010a054	004d0d13	addi	x26,x26,4	 x26:0x0010e328 x26=0x0010e32c
            150	        71	0010a058	ffaddce3	bge	x27,x26,10a050	 x27:0x0010e380 x26:0x0010e32c
            152	        72	0010a050	000d2023	sw	x0,0(x26)	 x26:0x0010e32c  x0:0x00000000 PA:0x0010e32c store:0x00000000
            154	        73	0010a054	004d0d13	addi	x26,x26,4	 x26:0x0010e32c x26=0x0010e330
            156	        74	0010a058	ffaddce3	bge	x27,x26,10a050	 x27:0x0010e380 x26:0x0010e330
            158	        75	0010a050	000d2023	sw	x0,0(x26)	 x26:0x0010e330  x0:0x00000000 PA:0x0010e330 store:0x00000000
            160	        76	0010a054	004d0d13	addi	x26,x26,4	 x26:0x0010e330 x26=0x0010e334
            162	        77	0010a058	ffaddce3	bge	x27,x26,10a050	 x27:0x0010e380 x26:0x0010e334
            164	        78	0010a050	000d2023	sw	x0,0(x26)	 x26:0x0010e334  x0:0x00000000 PA:0x0010e334 store:0x00000000
            166	        79	0010a054	004d0d13	addi	x26,x26,4	 x26:0x0010e334 x26=0x0010e338
            168	        80	0010a058	ffaddce3	bge	x27,x26,10a050	 x27:0x0010e380 x26:0x0010e338
            170	        81	0010a050	000d2023	sw	x0,0(x26)	 x26:0x0010e338  x0:0x00000000 PA:0x0010e338 store:0x00000000
            172	        82	0010a054	004d0d13	addi	x26,x26,4	 x26:0x0010e338 x26=0x0010e33c
            174	        83	0010a058	ffaddce3	bge	x27,x26,10a050	 x27:0x0010e380 x26:0x0010e33c
            176	        84	0010a050	000d2023	sw	x0,0(x26)	 x26:0x0010e33c  x0:0x00000000 PA:0x0010e33c store:0x00000000
            178	        85	0010a054	004d0d13	addi	x26,x26,4	 x26:0x0010e33c x26=0x0010e340
            180	        86	0010a058	ffaddce3	bge	x27,x26,10a050	 x27:0x0010e380 x26:0x0010e340
            182	        87	0010a050	000d2023	sw	x0,0(x26)	 x26:0x0010e340  x0:0x00000000 PA:0x0010e340 store:0x00000000
            184	        88	0010a054	004d0d13	addi	x26,x26,4	 x26:0x0010e340 x26=0x0010e344
            186	        89	0010a058	ffaddce3	bge	x27,x26,10a050	 x27:0x0010e380 x26:0x0010e344
            188	        90	0010a050	000d2023	sw	x0,0(x26)	 x26:0x0010e344  x0:0x00000000 PA:0x0010e344 store:0x00000000
            190	        91	0010a054	004d0d13	addi	x26,x26,4	 x26:0x0010e344 x26=0x0010e348
            192	        92	0010a058	ffaddce3	bge	x27,x26,10a050	 x27:0x0010e380 x26:0x0010e348
            194	        93	0010a050	000d2023	sw	x0,0(x26)	 x26:0x0010e348  x0:0x00000000 PA:0x0010e348 store:0x00000000
            196	        94	0010a054	004d0d13	addi	x26,x26,4	 x26:0x0010e348 x26=0x0010e34c
            198	        95	0010a058	ffaddce3	bge	x27,x26,10a050	 x27:0x0010e380 x26:0x0010e34c
            200	        96	0010a050	000d2023	sw	x0,0(x26)	 x26:0x0010e34c  x0:0x00000000 PA:0x0010e34c store:0x00000000
            202	        97	0010a054	004d0d13	addi	x26,x26,4	 x26:0x0010e34c x26=0x0010e350
            204	        98	0010a058	ffaddce3	bge	x27,x26,10a050	 x27:0x0010e380 x26:0x0010e350
            206	        99	0010a050	000d2023	sw	x0,0(x26)	 x26:0x0010e350  x0:0x00000000 PA:0x0010e350 store:0x00000000
            208	       100	0010a054	004d0d13	addi	x26,x26,4	 x26:0x0010e350 x26=0x0010e354
            210	       101	0010a058	ffaddce3	bge	x27,x26,10a050	 x27:0x0010e380 x26:0x0010e354
            212	       102	0010a050	000d2023	sw	x0,0(x26)	 x26:0x0010e354  x0:0x00000000 PA:0x0010e354 store:0x00000000
            214	       103	0010a054	004d0d13	addi	x26,x26,4	 x26:0x0010e354 x26=0x0010e358
            216	       104	0010a058	ffaddce3	bge	x27,x26,10a050	 x27:0x0010e380 x26:0x0010e358
            218	       105	0010a050	000d2023	sw	x0,0(x26)	 x26:0x0010e358  x0:0x00000000 PA:0x0010e358 store:0x00000000
            220	       106	0010a054	004d0d13	addi	x26,x26,4	 x26:0x0010e358 x26=0x0010e35c
            222	       107	0010a058	ffaddce3	bge	x27,x26,10a050	 x27:0x0010e380 x26:0x0010e35c
            224	       108	0010a050	000d2023	sw	x0,0(x26)	 x26:0x0010e35c  x0:0x00000000 PA:0x0010e35c store:0x00000000
            226	       109	0010a054	004d0d13	addi	x26,x26,4	 x26:0x0010e35c x26=0x0010e360
            228	       110	0010a058	ffaddce3	bge	x27,x26,10a050	 x27:0x0010e380 x26:0x0010e360
            230	       111	0010a050	000d2023	sw	x0,0(x26)	 x26:0x0010e360  x0:0x00000000 PA:0x0010e360 store:0x00000000
            232	       112	0010a054	004d0d13	addi	x26,x26,4	 x26:0x0010e360 x26=0x0010e364
            234	       113	0010a058	ffaddce3	bge	x27,x26,10a050	 x27:0x0010e380 x26:0x0010e364
            236	       114	0010a050	000d2023	sw	x0,0(x26)	 x26:0x0010e364  x0:0x00000000 PA:0x0010e364 store:0x00000000
            238	       115	0010a054	004d0d13	addi	x26,x26,4	 x26:0x0010e364 x26=0x0010e368
            240	       116	0010a058	ffaddce3	bge	x27,x26,10a050	 x27:0x0010e380 x26:0x0010e368
            242	       117	0010a050	000d2023	sw	x0,0(x26)	 x26:0x0010e368  x0:0x00000000 PA:0x0010e368 store:0x00000000
            244	       118	0010a054	004d0d13	addi	x26,x26,4	 x26:0x0010e368 x26=0x0010e36c
            246	       119	0010a058	ffaddce3	bge	x27,x26,10a050	 x27:0x0010e380 x26:0x0010e36c
            248	       120	0010a050	000d2023	sw	x0,0(x26)	 x26:0x0010e36c  x0:0x00000000 PA:0x0010e36c store:0x00000000
            250	       121	0010a054	004d0d13	addi	x26,x26,4	 x26:0x0010e36c x26=0x0010e370
            252	       122	0010a058	ffaddce3	bge	x27,x26,10a050	 x27:0x0010e380 x26:0x0010e370
            254	       123	0010a050	000d2023	sw	x0,0(x26)	 x26:0x0010e370  x0:0x00000000 PA:0x0010e370 store:0x00000000
            256	       124	0010a054	004d0d13	addi	x26,x26,4	 x26:0x0010e370 x26=0x0010e374
            258	       125	0010a058	ffaddce3	bge	x27,x26,10a050	 x27:0x0010e380 x26:0x0010e374
            260	       126	0010a050	000d2023	sw	x0,0(x26)	 x26:0x0010e374  x0:0x00000000 PA:0x0010e374 store:0x00000000
            262	       127	0010a054	004d0d13	addi	x26,x26,4	 x26:0x0010e374 x26=0x0010e378
            264	       128	0010a058	ffaddce3	bge	x27,x26,10a050	 x27:0x0010e380 x26:0x0010e378
            266	       129	0010a050	000d2023	sw	x0,0(x26)	 x26:0x0010e378  x0:0x00000000 PA:0x0010e378 store:0x00000000
            268	       130	0010a054	004d0d13	addi	x26,x26,4	 x26:0x0010e378 x26=0x0010e37c
            270	       131	0010a058	ffaddce3	bge	x27,x26,10a050	 x27:0x0010e380 x26:0x0010e37c
            272	       132	0010a050	000d2023	sw	x0,0(x26)	 x26:0x0010e37c  x0:0x00000000 PA:0x0010e37c store:0x00000000
            274	       133	0010a054	004d0d13	addi	x26,x26,4	 x26:0x0010e37c x26=0x0010e380
            276	       134	0010a058	ffaddce3	bge	x27,x26,10a050	 x27:0x0010e380 x26:0x0010e380
            278	       135	0010a050	000d2023	sw	x0,0(x26)	 x26:0x0010e380  x0:0x00000000 PA:0x0010e380 store:0x00000000
            280	       136	0010a054	004d0d13	addi	x26,x26,4	 x26:0x0010e380 x26=0x0010e384
            282	       137	0010a058	ffaddce3	bge	x27,x26,10a050	 x27:0x0010e380 x26:0x0010e384
            286	       139	0010a05c	00000513	addi	x10,x0,0	  x0:0x00000000 x10=0x00000000
            288	       140	0010a060	00000593	addi	x11,x0,0	  x0:0x00000000 x11=0x00000000
            290	       141	0010a064	21d020ef	jal	x1,10ca80	  x1=0x0010a068
            292	       142	0010ca80	81010113	addi	x2,x2,-2032	  x2:0x00138000  x2=0x00137810
            294	       143	0010ca84	00001737	lui	x14,0x1	 x14=0x00001000
            296	       144	0010ca88	7e112623	sw	x1,2028(x2)	  x2:0x00137810  x1:0x0010a068 PA:0x00137ffc store:0x0010a068
            298	       145	0010ca8c	7e812423	sw	x8,2024(x2)	  x2:0x00137810  x8:0x00000000 PA:0x00137ff8 store:0x00000000
            300	       146	0010ca90	7e912223	sw	x9,2020(x2)	  x2:0x00137810  x9:0x00000000 PA:0x00137ff4 store:0x00000000
            302	       147	0010ca94	7f212023	sw	x18,2016(x2)	  x2:0x00137810 x18:0x00000000 PA:0x00137ff0 store:0x00000000
            304	       148	0010ca98	7d312e23	sw	x19,2012(x2)	  x2:0x00137810 x19:0x00000000 PA:0x00137fec store:0x00000000
            306	       149	0010ca9c	7d412c23	sw	x20,2008(x2)	  x2:0x00137810 x20:0x00000000 PA:0x00137fe8 store:0x00000000
            308	       150	0010caa0	7d512a23	sw	x21,2004(x2)	  x2:0x00137810 x21:0x00000000 PA:0x00137fe4 store:0x00000000
            310	       151	0010caa4	7d612823	sw	x22,2000(x2)	  x2:0x00137810 x22:0x00000000 PA:0x00137fe0 store:0x00000000
            312	       152	0010caa8	7d712623	sw	x23,1996(x2)	  x2:0x00137810 x23:0x00000000 PA:0x00137fdc store:0x00000000
            314	       153	0010caac	7d812423	sw	x24,1992(x2)	  x2:0x00137810 x24:0x00000000 PA:0x00137fd8 store:0x00000000
            316	       154	0010cab0	7d912223	sw	x25,1988(x2)	  x2:0x00137810 x25:0x00000000 PA:0x00137fd4 store:0x00000000
            318	       155	0010cab4	7da12023	sw	x26,1984(x2)	  x2:0x00137810 x26:0x0010e384 PA:0x00137fd0 store:0x0010e384
            320	       156	0010cab8	7bb12e23	sw	x27,1980(x2)	  x2:0x00137810 x27:0x0010e380 PA:0x00137fcc store:0x0010e380
            322	       157	0010cabc	f8010113	addi	x2,x2,-128	  x2:0x00137810  x2=0x00137790
            324	       158	0010cac0	fffff7b7	lui	x15,0xfffff	 x15=0xfffff000
            326	       159	0010cac4	82070693	addi	x13,x14,-2016	 x14:0x00001000 x13=0x00000820
            328	       160	0010cac8	82070293	addi	x5,x14,-2016	 x14:0x00001000  x5=0x00000820
            330	       161	0010cacc	82070393	addi	x7,x14,-2016	 x14:0x00001000  x7=0x00000820
            332	       162	0010cad0	01010513	addi	x10,x2,16	  x2:0x00137790 x10=0x001377a0
            334	       163	0010cad4	00a680b3	add	x1,x13,x10	 x13:0x00000820 x10:0x001377a0  x1=0x00137fc0
            336	       164	0010cad8	00a28333	add	x6,x5,x10	  x5:0x00000820 x10:0x001377a0  x6=0x00137fc0
            338	       165	0010cadc	00a38433	add	x8,x7,x10	  x7:0x00000820 x10:0x001377a0  x8=0x00137fc0
            340	       166	0010cae0	7e878613	addi	x12,x15,2024	 x15:0xfffff000 x12=0xfffff7e8
            342	       167	0010cae4	7e478593	addi	x11,x15,2020	 x15:0xfffff000 x11=0xfffff7e4
            344	       168	0010cae8	00f404b3	add	x9,x8,x15	  x8:0x00137fc0 x15:0xfffff000  x9=0x00136fc0
            346	       169	0010caec	00c08633	add	x12,x1,x12	  x1:0x00137fc0 x12:0xfffff7e8 x12=0x001377a8
            348	       170	0010caf0	00b305b3	add	x11,x6,x11	  x6:0x00137fc0 x11:0xfffff7e4 x11=0x001377a4
            350	       171	0010caf4	05e10513	addi	x10,x2,94	  x2:0x00137790 x10=0x001377ee
            352	       172	0010caf8	00912423	sw	x9,8(x2)	  x2:0x00137790  x9:0x00136fc0 PA:0x00137798 store:0x00136fc0
            354	       173	0010cafc	7e04a223	sw	x0,2020(x9)	  x9:0x00136fc0  x0:0x00000000 PA:0x001377a4 store:0x00000000
            356	       174	0010cb00	de1f80ef	jal	x1,1058e0	  x1=0x0010cb04
            358	       175	001058e0	ff010113	addi	x2,x2,-16	  x2:0x00137790  x2=0x00137780
            360	       176	001058e4	00812423	sw	x8,8(x2)	  x2:0x00137780  x8:0x00137fc0 PA:0x00137788 store:0x00137fc0
            362	       177	001058e8	00050413	addi	x8,x10,0	 x10:0x001377ee  x8=0x001377ee
            364	       178	001058ec	0010e537	lui	x10,0x10e	 x10=0x0010e000
            366	       179	001058f0	15c50513	addi	x10,x10,348	 x10:0x0010e000 x10=0x0010e15c
            368	       180	001058f4	00112623	sw	x1,12(x2)	  x2:0x00137780  x1:0x0010cb04 PA:0x0013778c store:0x0010cb04
            370	       181	001058f8	2b9000ef	jal	x1,1063b0	  x1=0x001058fc
            372	       182	001063b0	de010113	addi	x2,x2,-544	  x2:0x00137780  x2=0x00137560
            374	       183	001063b4	1e912a23	sw	x9,500(x2)	  x2:0x00137560  x9:0x00136fc0 PA:0x00137754 store:0x00136fc0
            376	       184	001063b8	1f212823	sw	x18,496(x2)	  x2:0x00137560 x18:0x00000000 PA:0x00137750 store:0x00000000
            378	       185	001063bc	1f312623	sw	x19,492(x2)	  x2:0x00137560 x19:0x00000000 PA:0x0013774c store:0x00000000
            380	       186	001063c0	1e112e23	sw	x1,508(x2)	  x2:0x00137560  x1:0x001058fc PA:0x0013775c store:0x001058fc
            382	       187	001063c4	1e812c23	sw	x8,504(x2)	  x2:0x00137560  x8:0x001377ee PA:0x00137758 store:0x001377ee
            384	       188	001063c8	1f412423	sw	x20,488(x2)	  x2:0x00137560 x20:0x00000000 PA:0x00137748 store:0x00000000
            386	       189	001063cc	1f512223	sw	x21,484(x2)	  x2:0x00137560 x21:0x00000000 PA:0x00137744 store:0x00000000
            388	       190	001063d0	1f612023	sw	x22,480(x2)	  x2:0x00137560 x22:0x00000000 PA:0x00137740 store:0x00000000
            390	       191	001063d4	1d712e23	sw	x23,476(x2)	  x2:0x00137560 x23:0x00000000 PA:0x0013773c store:0x00000000
            392	       192	001063d8	1d812c23	sw	x24,472(x2)	  x2:0x00137560 x24:0x00000000 PA:0x00137738 store:0x00000000
            394	       193	001063dc	1d912a23	sw	x25,468(x2)	  x2:0x00137560 x25:0x00000000 PA:0x00137734 store:0x00000000
            396	       194	001063e0	1da12823	sw	x26,464(x2)	  x2:0x00137560 x26:0x0010e384 PA:0x00137730 store:0x0010e384
            398	       195	001063e4	1db12623	sw	x27,460(x2)	  x2:0x00137560 x27:0x0010e380 PA:0x0013772c store:0x0010e380
            400	       196	001063e8	20b12223	sw	x11,516(x2)	  x2:0x00137560 x11:0x001377a4 PA:0x00137764 store:0x001377a4
            402	       197	001063ec	20c12423	sw	x12,520(x2)	  x2:0x00137560 x12:0x001377a8 PA:0x00137768 store:0x001377a8
            404	       198	001063f0	20d12623	sw	x13,524(x2)	  x2:0x00137560 x13:0x00000820 PA:0x0013776c store:0x00000820
            406	       199	001063f4	20e12823	sw	x14,528(x2)	  x2:0x00137560 x14:0x00001000 PA:0x00137770 store:0x00001000
            408	       200	001063f8	20f12a23	sw	x15,532(x2)	  x2:0x00137560 x15:0xfffff000 PA:0x00137774 store:0xfffff000
            410	       201	001063fc	21012c23	sw	x16,536(x2)	  x2:0x00137560 x16:0x00000000 PA:0x00137778 store:0x00000000
            412	       202	00106400	21112e23	sw	x17,540(x2)	  x2:0x00137560 x17:0x00000000 PA:0x0013777c store:0x00000000
            414	       203	00106404	00054403	lbu	x8,0(x10)	 x10:0x0010e15c  x8=0x00000049 PA:0x0010e15c load:0x00000049
            416	       204	00106408	20410993	addi	x19,x2,516	  x2:0x00137560 x19=0x00137764
            418	       205	0010640c	0c010913	addi	x18,x2,192	  x2:0x00137560 x18=0x00137620
            420	       206	00106410	01312a23	sw	x19,20(x2)	  x2:0x00137560 x19:0x00137764 PA:0x00137574 store:0x00137764
            422	       207	00106414	00090493	addi	x9,x18,0	 x18:0x00137620  x9=0x00137620
            424	       208	00106418	02040e63	beq	x8,x0,106454	  x8:0x00000049  x0:0x00000000
            426	       209	0010641c	0010ea37	lui	x20,0x10e	 x20=0x0010e000
            428	       210	00106420	0010e737	lui	x14,0x10e	 x14=0x0010e000
            430	       211	00106424	0010eab7	lui	x21,0x10e	 x21=0x0010e000
            432	       212	00106428	8e8a0a13	addi	x20,x20,-1816	 x20:0x0010e000 x20=0x0010d8e8
            434	       213	0010642c	92c70d13	addi	x26,x14,-1748	 x14:0x0010e000 x26=0x0010d92c
            436	       214	00106430	228a8a93	addi	x21,x21,552	 x21:0x0010e000 x21=0x0010e228
            438	       215	00106434	0010eb37	lui	x22,0x10e	 x22=0x0010e000
            440	       216	00106438	02500093	addi	x1,x0,37	  x0:0x00000000  x1=0x00000025
            442	       217	0010643c	10140863	beq	x8,x1,10654c	  x8:0x00000049  x1:0x00000025
            444	       218	00106440	00848023	sb	x8,0(x9)	  x9:0x00137620  x8:0x00000049 PA:0x00137620 store:0x00000049
            446	       219	00106444	00154403	lbu	x8,1(x10)	 x10:0x0010e15c  x8=0x00000062 PA:0x0010e15d load:0x00000062
            448	       220	00106448	00148493	addi	x9,x9,1	  x9:0x00137620  x9=0x00137621
            450	       221	0010644c	00150513	addi	x10,x10,1	 x10:0x0010e15c x10=0x0010e15d
            452	       222	00106450	fe0414e3	bne	x8,x0,106438	  x8:0x00000062  x0:0x00000000
            454	       223	00106438	02500093	addi	x1,x0,37	  x0:0x00000000  x1=0x00000025
            456	       224	0010643c	10140863	beq	x8,x1,10654c	  x8:0x00000062  x1:0x00000025
            458	       225	00106440	00848023	sb	x8,0(x9)	  x9:0x00137621  x8:0x00000062 PA:0x00137621 store:0x00000062
            460	       226	00106444	00154403	lbu	x8,1(x10)	 x10:0x0010e15d  x8=0x00000065 PA:0x0010e15e load:0x00000065
            462	       227	00106448	00148493	addi	x9,x9,1	  x9:0x00137621  x9=0x00137622
            464	       228	0010644c	00150513	addi	x10,x10,1	 x10:0x0010e15d x10=0x0010e15e
            466	       229	00106450	fe0414e3	bne	x8,x0,106438	  x8:0x00000065  x0:0x00000000
            468	       230	00106438	02500093	addi	x1,x0,37	  x0:0x00000000  x1=0x00000025
            470	       231	0010643c	10140863	beq	x8,x1,10654c	  x8:0x00000065  x1:0x00000025
            472	       232	00106440	00848023	sb	x8,0(x9)	  x9:0x00137622  x8:0x00000065 PA:0x00137622 store:0x00000065
            474	       233	00106444	00154403	lbu	x8,1(x10)	 x10:0x0010e15e  x8=0x00000078 PA:0x0010e15f load:0x00000078
            476	       234	00106448	00148493	addi	x9,x9,1	  x9:0x00137622  x9=0x00137623
            478	       235	0010644c	00150513	addi	x10,x10,1	 x10:0x0010e15e x10=0x0010e15f
            480	       236	00106450	fe0414e3	bne	x8,x0,106438	  x8:0x00000078  x0:0x00000000
            482	       237	00106438	02500093	addi	x1,x0,37	  x0:0x00000000  x1=0x00000025
            484	       238	0010643c	10140863	beq	x8,x1,10654c	  x8:0x00000078  x1:0x00000025
            486	       239	00106440	00848023	sb	x8,0(x9)	  x9:0x00137623  x8:0x00000078 PA:0x00137623 store:0x00000078
            488	       240	00106444	00154403	lbu	x8,1(x10)	 x10:0x0010e15f  x8=0x00000020 PA:0x0010e160 load:0x00000020
            490	       241	00106448	00148493	addi	x9,x9,1	  x9:0x00137623  x9=0x00137624
            492	       242	0010644c	00150513	addi	x10,x10,1	 x10:0x0010e15f x10=0x0010e160
            494	       243	00106450	fe0414e3	bne	x8,x0,106438	  x8:0x00000020  x0:0x00000000
            496	       244	00106438	02500093	addi	x1,x0,37	  x0:0x00000000  x1=0x00000025
            498	       245	0010643c	10140863	beq	x8,x1,10654c	  x8:0x00000020  x1:0x00000025
            500	       246	00106440	00848023	sb	x8,0(x9)	  x9:0x00137624  x8:0x00000020 PA:0x00137624 store:0x00000020
            502	       247	00106444	00154403	lbu	x8,1(x10)	 x10:0x0010e160  x8=0x00000043 PA:0x0010e161 load:0x00000043
            504	       248	00106448	00148493	addi	x9,x9,1	  x9:0x00137624  x9=0x00137625
            506	       249	0010644c	00150513	addi	x10,x10,1	 x10:0x0010e160 x10=0x0010e161
            508	       250	00106450	fe0414e3	bne	x8,x0,106438	  x8:0x00000043  x0:0x00000000
            510	       251	00106438	02500093	addi	x1,x0,37	  x0:0x00000000  x1=0x00000025
            512	       252	0010643c	10140863	beq	x8,x1,10654c	  x8:0x00000043  x1:0x00000025
            514	       253	00106440	00848023	sb	x8,0(x9)	  x9:0x00137625  x8:0x00000043 PA:0x00137625 store:0x00000043
            516	       254	00106444	00154403	lbu	x8,1(x10)	 x10:0x0010e161  x8=0x0000006f PA:0x0010e162 load:0x0000006f
            518	       255	00106448	00148493	addi	x9,x9,1	  x9:0x00137625  x9=0x00137626
            520	       256	0010644c	00150513	addi	x10,x10,1	 x10:0x0010e161 x10=0x0010e162
            522	       257	00106450	fe0414e3	bne	x8,x0,106438	  x8:0x0000006f  x0:0x00000000
            524	       258	00106438	02500093	addi	x1,x0,37	  x0:0x00000000  x1=0x00000025
            526	       259	0010643c	10140863	beq	x8,x1,10654c	  x8:0x0000006f  x1:0x00000025
            528	       260	00106440	00848023	sb	x8,0(x9)	  x9:0x00137626  x8:0x0000006f PA:0x00137626 store:0x0000006f
            530	       261	00106444	00154403	lbu	x8,1(x10)	 x10:0x0010e162  x8=0x00000072 PA:0x0010e163 load:0x00000072
            532	       262	00106448	00148493	addi	x9,x9,1	  x9:0x00137626  x9=0x00137627
            534	       263	0010644c	00150513	addi	x10,x10,1	 x10:0x0010e162 x10=0x0010e163
            536	       264	00106450	fe0414e3	bne	x8,x0,106438	  x8:0x00000072  x0:0x00000000
            538	       265	00106438	02500093	addi	x1,x0,37	  x0:0x00000000  x1=0x00000025
            540	       266	0010643c	10140863	beq	x8,x1,10654c	  x8:0x00000072  x1:0x00000025
            542	       267	00106440	00848023	sb	x8,0(x9)	  x9:0x00137627  x8:0x00000072 PA:0x00137627 store:0x00000072
            544	       268	00106444	00154403	lbu	x8,1(x10)	 x10:0x0010e163  x8=0x00000065 PA:0x0010e164 load:0x00000065
            546	       269	00106448	00148493	addi	x9,x9,1	  x9:0x00137627  x9=0x00137628
            548	       270	0010644c	00150513	addi	x10,x10,1	 x10:0x0010e163 x10=0x0010e164
            550	       271	00106450	fe0414e3	bne	x8,x0,106438	  x8:0x00000065  x0:0x00000000
            552	       272	00106438	02500093	addi	x1,x0,37	  x0:0x00000000  x1=0x00000025
            554	       273	0010643c	10140863	beq	x8,x1,10654c	  x8:0x00000065  x1:0x00000025
            556	       274	00106440	00848023	sb	x8,0(x9)	  x9:0x00137628  x8:0x00000065 PA:0x00137628 store:0x00000065
            558	       275	00106444	00154403	lbu	x8,1(x10)	 x10:0x0010e164  x8=0x0000004d PA:0x0010e165 load:0x0000004d
            560	       276	00106448	00148493	addi	x9,x9,1	  x9:0x00137628  x9=0x00137629
            562	       277	0010644c	00150513	addi	x10,x10,1	 x10:0x0010e164 x10=0x0010e165
            564	       278	00106450	fe0414e3	bne	x8,x0,106438	  x8:0x0000004d  x0:0x00000000
            566	       279	00106438	02500093	addi	x1,x0,37	  x0:0x00000000  x1=0x00000025
            568	       280	0010643c	10140863	beq	x8,x1,10654c	  x8:0x0000004d  x1:0x00000025
            570	       281	00106440	00848023	sb	x8,0(x9)	  x9:0x00137629  x8:0x0000004d PA:0x00137629 store:0x0000004d
            572	       282	00106444	00154403	lbu	x8,1(x10)	 x10:0x0010e165  x8=0x00000061 PA:0x0010e166 load:0x00000061
            574	       283	00106448	00148493	addi	x9,x9,1	  x9:0x00137629  x9=0x0013762a
            576	       284	0010644c	00150513	addi	x10,x10,1	 x10:0x0010e165 x10=0x0010e166
            578	       285	00106450	fe0414e3	bne	x8,x0,106438	  x8:0x00000061  x0:0x00000000
            580	       286	00106438	02500093	addi	x1,x0,37	  x0:0x00000000  x1=0x00000025
            582	       287	0010643c	10140863	beq	x8,x1,10654c	  x8:0x00000061  x1:0x00000025
            584	       288	00106440	00848023	sb	x8,0(x9)	  x9:0x0013762a  x8:0x00000061 PA:0x0013762a store:0x00000061
            586	       289	00106444	00154403	lbu	x8,1(x10)	 x10:0x0010e166  x8=0x00000072 PA:0x0010e167 load:0x00000072
            588	       290	00106448	00148493	addi	x9,x9,1	  x9:0x0013762a  x9=0x0013762b
            590	       291	0010644c	00150513	addi	x10,x10,1	 x10:0x0010e166 x10=0x0010e167
            592	       292	00106450	fe0414e3	bne	x8,x0,106438	  x8:0x00000072  x0:0x00000000
            594	       293	00106438	02500093	addi	x1,x0,37	  x0:0x00000000  x1=0x00000025
            596	       294	0010643c	10140863	beq	x8,x1,10654c	  x8:0x00000072  x1:0x00000025
            598	       295	00106440	00848023	sb	x8,0(x9)	  x9:0x0013762b  x8:0x00000072 PA:0x0013762b store:0x00000072
            600	       296	00106444	00154403	lbu	x8,1(x10)	 x10:0x0010e167  x8=0x0000006b PA:0x0010e168 load:0x0000006b
            602	       297	00106448	00148493	addi	x9,x9,1	  x9:0x0013762b  x9=0x0013762c
            604	       298	0010644c	00150513	addi	x10,x10,1	 x10:0x0010e167 x10=0x0010e168
            606	       299	00106450	fe0414e3	bne	x8,x0,106438	  x8:0x0000006b  x0:0x00000000
            608	       300	00106438	02500093	addi	x1,x0,37	  x0:0x00000000  x1=0x00000025
            610	       301	0010643c	10140863	beq	x8,x1,10654c	  x8:0x0000006b  x1:0x00000025
            612	       302	00106440	00848023	sb	x8,0(x9)	  x9:0x0013762c  x8:0x0000006b PA:0x0013762c store:0x0000006b
            614	       303	00106444	00154403	lbu	x8,1(x10)	 x10:0x0010e168  x8=0x00000020 PA:0x0010e169 load:0x00000020
            616	       304	00106448	00148493	addi	x9,x9,1	  x9:0x0013762c  x9=0x0013762d
            618	       305	0010644c	00150513	addi	x10,x10,1	 x10:0x0010e168 x10=0x0010e169
            620	       306	00106450	fe0414e3	bne	x8,x0,106438	  x8:0x00000020  x0:0x00000000
            622	       307	00106438	02500093	addi	x1,x0,37	  x0:0x00000000  x1=0x00000025
            624	       308	0010643c	10140863	beq	x8,x1,10654c	  x8:0x00000020  x1:0x00000025
            626	       309	00106440	00848023	sb	x8,0(x9)	  x9:0x0013762d  x8:0x00000020 PA:0x0013762d store:0x00000020
            628	       310	00106444	00154403	lbu	x8,1(x10)	 x10:0x0010e169  x8=0x00000070 PA:0x0010e16a load:0x00000070
            630	       311	00106448	00148493	addi	x9,x9,1	  x9:0x0013762d  x9=0x0013762e
            632	       312	0010644c	00150513	addi	x10,x10,1	 x10:0x0010e169 x10=0x0010e16a
            634	       313	00106450	fe0414e3	bne	x8,x0,106438	  x8:0x00000070  x0:0x00000000
            636	       314	00106438	02500093	addi	x1,x0,37	  x0:0x00000000  x1=0x00000025
            638	       315	0010643c	10140863	beq	x8,x1,10654c	  x8:0x00000070  x1:0x00000025
            640	       316	00106440	00848023	sb	x8,0(x9)	  x9:0x0013762e  x8:0x00000070 PA:0x0013762e store:0x00000070
            642	       317	00106444	00154403	lbu	x8,1(x10)	 x10:0x0010e16a  x8=0x0000006c PA:0x0010e16b load:0x0000006c
            644	       318	00106448	00148493	addi	x9,x9,1	  x9:0x0013762e  x9=0x0013762f
            646	       319	0010644c	00150513	addi	x10,x10,1	 x10:0x0010e16a x10=0x0010e16b
            648	       320	00106450	fe0414e3	bne	x8,x0,106438	  x8:0x0000006c  x0:0x00000000
            650	       321	00106438	02500093	addi	x1,x0,37	  x0:0x00000000  x1=0x00000025
            652	       322	0010643c	10140863	beq	x8,x1,10654c	  x8:0x0000006c  x1:0x00000025
            654	       323	00106440	00848023	sb	x8,0(x9)	  x9:0x0013762f  x8:0x0000006c PA:0x0013762f store:0x0000006c
            656	       324	00106444	00154403	lbu	x8,1(x10)	 x10:0x0010e16b  x8=0x00000061 PA:0x0010e16c load:0x00000061
            658	       325	00106448	00148493	addi	x9,x9,1	  x9:0x0013762f  x9=0x00137630
            660	       326	0010644c	00150513	addi	x10,x10,1	 x10:0x0010e16b x10=0x0010e16c
            662	       327	00106450	fe0414e3	bne	x8,x0,106438	  x8:0x00000061  x0:0x00000000
            664	       328	00106438	02500093	addi	x1,x0,37	  x0:0x00000000  x1=0x00000025
            666	       329	0010643c	10140863	beq	x8,x1,10654c	  x8:0x00000061  x1:0x00000025
            668	       330	00106440	00848023	sb	x8,0(x9)	  x9:0x00137630  x8:0x00000061 PA:0x00137630 store:0x00000061
            670	       331	00106444	00154403	lbu	x8,1(x10)	 x10:0x0010e16c  x8=0x00000074 PA:0x0010e16d load:0x00000074
            672	       332	00106448	00148493	addi	x9,x9,1	  x9:0x00137630  x9=0x00137631
            674	       333	0010644c	00150513	addi	x10,x10,1	 x10:0x0010e16c x10=0x0010e16d
            676	       334	00106450	fe0414e3	bne	x8,x0,106438	  x8:0x00000074  x0:0x00000000
            678	       335	00106438	02500093	addi	x1,x0,37	  x0:0x00000000  x1=0x00000025
            680	       336	0010643c	10140863	beq	x8,x1,10654c	  x8:0x00000074  x1:0x00000025
            682	       337	00106440	00848023	sb	x8,0(x9)	  x9:0x00137631  x8:0x00000074 PA:0x00137631 store:0x00000074
            684	       338	00106444	00154403	lbu	x8,1(x10)	 x10:0x0010e16d  x8=0x00000066 PA:0x0010e16e load:0x00000066
            686	       339	00106448	00148493	addi	x9,x9,1	  x9:0x00137631  x9=0x00137632
            688	       340	0010644c	00150513	addi	x10,x10,1	 x10:0x0010e16d x10=0x0010e16e
            690	       341	00106450	fe0414e3	bne	x8,x0,106438	  x8:0x00000066  x0:0x00000000
            692	       342	00106438	02500093	addi	x1,x0,37	  x0:0x00000000  x1=0x00000025
            694	       343	0010643c	10140863	beq	x8,x1,10654c	  x8:0x00000066  x1:0x00000025
            696	       344	00106440	00848023	sb	x8,0(x9)	  x9:0x00137632  x8:0x00000066 PA:0x00137632 store:0x00000066
            698	       345	00106444	00154403	lbu	x8,1(x10)	 x10:0x0010e16e  x8=0x0000006f PA:0x0010e16f load:0x0000006f
            700	       346	00106448	00148493	addi	x9,x9,1	  x9:0x00137632  x9=0x00137633
            702	       347	0010644c	00150513	addi	x10,x10,1	 x10:0x0010e16e x10=0x0010e16f
            704	       348	00106450	fe0414e3	bne	x8,x0,106438	  x8:0x0000006f  x0:0x00000000
            706	       349	00106438	02500093	addi	x1,x0,37	  x0:0x00000000  x1=0x00000025
            708	       350	0010643c	10140863	beq	x8,x1,10654c	  x8:0x0000006f  x1:0x00000025
            710	       351	00106440	00848023	sb	x8,0(x9)	  x9:0x00137633  x8:0x0000006f PA:0x00137633 store:0x0000006f
            712	       352	00106444	00154403	lbu	x8,1(x10)	 x10:0x0010e16f  x8=0x00000072 PA:0x0010e170 load:0x00000072
            714	       353	00106448	00148493	addi	x9,x9,1	  x9:0x00137633  x9=0x00137634
            716	       354	0010644c	00150513	addi	x10,x10,1	 x10:0x0010e16f x10=0x0010e170
            718	       355	00106450	fe0414e3	bne	x8,x0,106438	  x8:0x00000072  x0:0x00000000
            720	       356	00106438	02500093	addi	x1,x0,37	  x0:0x00000000  x1=0x00000025
            722	       357	0010643c	10140863	beq	x8,x1,10654c	  x8:0x00000072  x1:0x00000025
            724	       358	00106440	00848023	sb	x8,0(x9)	  x9:0x00137634  x8:0x00000072 PA:0x00137634 store:0x00000072
            726	       359	00106444	00154403	lbu	x8,1(x10)	 x10:0x0010e170  x8=0x0000006d PA:0x0010e171 load:0x0000006d
            728	       360	00106448	00148493	addi	x9,x9,1	  x9:0x00137634  x9=0x00137635
            730	       361	0010644c	00150513	addi	x10,x10,1	 x10:0x0010e170 x10=0x0010e171
            732	       362	00106450	fe0414e3	bne	x8,x0,106438	  x8:0x0000006d  x0:0x00000000
            734	       363	00106438	02500093	addi	x1,x0,37	  x0:0x00000000  x1=0x00000025
            736	       364	0010643c	10140863	beq	x8,x1,10654c	  x8:0x0000006d  x1:0x00000025
            738	       365	00106440	00848023	sb	x8,0(x9)	  x9:0x00137635  x8:0x0000006d PA:0x00137635 store:0x0000006d
            740	       366	00106444	00154403	lbu	x8,1(x10)	 x10:0x0010e171  x8=0x00000020 PA:0x0010e172 load:0x00000020
            742	       367	00106448	00148493	addi	x9,x9,1	  x9:0x00137635  x9=0x00137636
            744	       368	0010644c	00150513	addi	x10,x10,1	 x10:0x0010e171 x10=0x0010e172
            746	       369	00106450	fe0414e3	bne	x8,x0,106438	  x8:0x00000020  x0:0x00000000
            748	       370	00106438	02500093	addi	x1,x0,37	  x0:0x00000000  x1=0x00000025
            750	       371	0010643c	10140863	beq	x8,x1,10654c	  x8:0x00000020  x1:0x00000025
            752	       372	00106440	00848023	sb	x8,0(x9)	  x9:0x00137636  x8:0x00000020 PA:0x00137636 store:0x00000020
            754	       373	00106444	00154403	lbu	x8,1(x10)	 x10:0x0010e172  x8=0x00000069 PA:0x0010e173 load:0x00000069
            756	       374	00106448	00148493	addi	x9,x9,1	  x9:0x00137636  x9=0x00137637
            758	       375	0010644c	00150513	addi	x10,x10,1	 x10:0x0010e172 x10=0x0010e173
            760	       376	00106450	fe0414e3	bne	x8,x0,106438	  x8:0x00000069  x0:0x00000000
            762	       377	00106438	02500093	addi	x1,x0,37	  x0:0x00000000  x1=0x00000025
            764	       378	0010643c	10140863	beq	x8,x1,10654c	  x8:0x00000069  x1:0x00000025
            766	       379	00106440	00848023	sb	x8,0(x9)	  x9:0x00137637  x8:0x00000069 PA:0x00137637 store:0x00000069
            768	       380	00106444	00154403	lbu	x8,1(x10)	 x10:0x0010e173  x8=0x0000006e PA:0x0010e174 load:0x0000006e
            770	       381	00106448	00148493	addi	x9,x9,1	  x9:0x00137637  x9=0x00137638
            772	       382	0010644c	00150513	addi	x10,x10,1	 x10:0x0010e173 x10=0x0010e174
            774	       383	00106450	fe0414e3	bne	x8,x0,106438	  x8:0x0000006e  x0:0x00000000
            776	       384	00106438	02500093	addi	x1,x0,37	  x0:0x00000000  x1=0x00000025
            778	       385	0010643c	10140863	beq	x8,x1,10654c	  x8:0x0000006e  x1:0x00000025
            780	       386	00106440	00848023	sb	x8,0(x9)	  x9:0x00137638  x8:0x0000006e PA:0x00137638 store:0x0000006e
            782	       387	00106444	00154403	lbu	x8,1(x10)	 x10:0x0010e174  x8=0x00000069 PA:0x0010e175 load:0x00000069
            784	       388	00106448	00148493	addi	x9,x9,1	  x9:0x00137638  x9=0x00137639
            786	       389	0010644c	00150513	addi	x10,x10,1	 x10:0x0010e174 x10=0x0010e175
            788	       390	00106450	fe0414e3	bne	x8,x0,106438	  x8:0x00000069  x0:0x00000000
            790	       391	00106438	02500093	addi	x1,x0,37	  x0:0x00000000  x1=0x00000025
            792	       392	0010643c	10140863	beq	x8,x1,10654c	  x8:0x00000069  x1:0x00000025
            794	       393	00106440	00848023	sb	x8,0(x9)	  x9:0x00137639  x8:0x00000069 PA:0x00137639 store:0x00000069
            796	       394	00106444	00154403	lbu	x8,1(x10)	 x10:0x0010e175  x8=0x00000074 PA:0x0010e176 load:0x00000074
            798	       395	00106448	00148493	addi	x9,x9,1	  x9:0x00137639  x9=0x0013763a
            800	       396	0010644c	00150513	addi	x10,x10,1	 x10:0x0010e175 x10=0x0010e176
            802	       397	00106450	fe0414e3	bne	x8,x0,106438	  x8:0x00000074  x0:0x00000000
            804	       398	00106438	02500093	addi	x1,x0,37	  x0:0x00000000  x1=0x00000025
            806	       399	0010643c	10140863	beq	x8,x1,10654c	  x8:0x00000074  x1:0x00000025
            808	       400	00106440	00848023	sb	x8,0(x9)	  x9:0x0013763a  x8:0x00000074 PA:0x0013763a store:0x00000074
            810	       401	00106444	00154403	lbu	x8,1(x10)	 x10:0x0010e176  x8=0x0000002e PA:0x0010e177 load:0x0000002e
            812	       402	00106448	00148493	addi	x9,x9,1	  x9:0x0013763a  x9=0x0013763b
            814	       403	0010644c	00150513	addi	x10,x10,1	 x10:0x0010e176 x10=0x0010e177
            816	       404	00106450	fe0414e3	bne	x8,x0,106438	  x8:0x0000002e  x0:0x00000000
            818	       405	00106438	02500093	addi	x1,x0,37	  x0:0x00000000  x1=0x00000025
            820	       406	0010643c	10140863	beq	x8,x1,10654c	  x8:0x0000002e  x1:0x00000025
            822	       407	00106440	00848023	sb	x8,0(x9)	  x9:0x0013763b  x8:0x0000002e PA:0x0013763b store:0x0000002e
            824	       408	00106444	00154403	lbu	x8,1(x10)	 x10:0x0010e177  x8=0x0000002e PA:0x0010e178 load:0x0000002e
            826	       409	00106448	00148493	addi	x9,x9,1	  x9:0x0013763b  x9=0x0013763c
            828	       410	0010644c	00150513	addi	x10,x10,1	 x10:0x0010e177 x10=0x0010e178
            830	       411	00106450	fe0414e3	bne	x8,x0,106438	  x8:0x0000002e  x0:0x00000000
            832	       412	00106438	02500093	addi	x1,x0,37	  x0:0x00000000  x1=0x00000025
            834	       413	0010643c	10140863	beq	x8,x1,10654c	  x8:0x0000002e  x1:0x00000025
            836	       414	00106440	00848023	sb	x8,0(x9)	  x9:0x0013763c  x8:0x0000002e PA:0x0013763c store:0x0000002e
            838	       415	00106444	00154403	lbu	x8,1(x10)	 x10:0x0010e178  x8=0x0000002e PA:0x0010e179 load:0x0000002e
            840	       416	00106448	00148493	addi	x9,x9,1	  x9:0x0013763c  x9=0x0013763d
            842	       417	0010644c	00150513	addi	x10,x10,1	 x10:0x0010e178 x10=0x0010e179
            844	       418	00106450	fe0414e3	bne	x8,x0,106438	  x8:0x0000002e  x0:0x00000000
            846	       419	00106438	02500093	addi	x1,x0,37	  x0:0x00000000  x1=0x00000025
            848	       420	0010643c	10140863	beq	x8,x1,10654c	  x8:0x0000002e  x1:0x00000025
            850	       421	00106440	00848023	sb	x8,0(x9)	  x9:0x0013763d  x8:0x0000002e PA:0x0013763d store:0x0000002e
            852	       422	00106444	00154403	lbu	x8,1(x10)	 x10:0x0010e179  x8=0x0000000a PA:0x0010e17a load:0x0000000a
            854	       423	00106448	00148493	addi	x9,x9,1	  x9:0x0013763d  x9=0x0013763e
            856	       424	0010644c	00150513	addi	x10,x10,1	 x10:0x0010e179 x10=0x0010e17a
            858	       425	00106450	fe0414e3	bne	x8,x0,106438	  x8:0x0000000a  x0:0x00000000
            860	       426	00106438	02500093	addi	x1,x0,37	  x0:0x00000000  x1=0x00000025
            862	       427	0010643c	10140863	beq	x8,x1,10654c	  x8:0x0000000a  x1:0x00000025
            864	       428	00106440	00848023	sb	x8,0(x9)	  x9:0x0013763e  x8:0x0000000a PA:0x0013763e store:0x0000000a
            866	       429	00106444	00154403	lbu	x8,1(x10)	 x10:0x0010e17a  x8=0x00000000 PA:0x0010e17b load:0x00000000
            868	       430	00106448	00148493	addi	x9,x9,1	  x9:0x0013763e  x9=0x0013763f
            870	       431	0010644c	00150513	addi	x10,x10,1	 x10:0x0010e17a x10=0x0010e17b
            872	       432	00106450	fe0414e3	bne	x8,x0,106438	  x8:0x00000000  x0:0x00000000
            876	       434	00106454	00048023	sb	x0,0(x9)	  x9:0x0013763f  x0:0x00000000 PA:0x0013763f store:0x00000000
            878	       435	00106458	0c014503	lbu	x10,192(x2)	  x2:0x00137560 x10=0x00000049 PA:0x00137620 load:0x00000049
            882	       437	0010645c	00051463	bne	x10,x0,106464	 x10:0x00000049  x0:0x00000000
            886	       439	00106464	00100a13	addi	x20,x0,1	  x0:0x00000000 x20=0x00000001
            888	       440	00106468	412a0ab3	sub	x21,x20,x18	 x20:0x00000001 x18:0x00137620 x21=0xffec89e1
            890	       441	0010646c	415030ef	jal	x1,10a080	  x1=0x00106470
            892	       442	0010a080	0ff57793	andi	x15,x10,255	 x10:0x00000049 x15=0x00000049
            894	       443	0010a084	00020737	lui	x14,0x20	 x14=0x00020000
            896	       444	0010a088	00f72023	sw	x15,0(x14)	 x14:0x00020000 x15:0x00000049 PA:0x00020000 store:0x00000049
            898	       445	0010a08c	00008067	jalr	x0,0(x1)	  x1:0x00106470  x0=0x00000000
            902	       447	00106470	00194503	lbu	x10,1(x18)	 x18:0x00137620 x10=0x00000062 PA:0x00137621 load:0x00000062
            904	       448	00106474	015907b3	add	x15,x18,x21	 x18:0x00137620 x21:0xffec89e1 x15=0x00000001
            906	       449	00106478	00190b13	addi	x22,x18,1	 x18:0x00137620 x22=0x00137621
            908	       450	0010647c	08050863	beq	x10,x0,10650c	 x10:0x00000062  x0:0x00000000
            910	       451	00106480	401030ef	jal	x1,10a080	  x1=0x00106484
            912	       452	0010a080	0ff57793	andi	x15,x10,255	 x10:0x00000062 x15=0x00000062
            914	       453	0010a084	00020737	lui	x14,0x20	 x14=0x00020000
            916	       454	0010a088	00f72023	sw	x15,0(x14)	 x14:0x00020000 x15:0x00000062 PA:0x00020000 store:0x00000062
            918	       455	0010a08c	00008067	jalr	x0,0(x1)	  x1:0x00106484  x0=0x00000000
            922	       457	00106484	00294503	lbu	x10,2(x18)	 x18:0x00137620 x10=0x00000065 PA:0x00137622 load:0x00000065
            924	       458	00106488	015b07b3	add	x15,x22,x21	 x22:0x00137621 x21:0xffec89e1 x15=0x00000002
            926	       459	0010648c	00290d13	addi	x26,x18,2	 x18:0x00137620 x26=0x00137622
            928	       460	00106490	06050e63	beq	x10,x0,10650c	 x10:0x00000065  x0:0x00000000
            930	       461	00106494	3ed030ef	jal	x1,10a080	  x1=0x00106498
            932	       462	0010a080	0ff57793	andi	x15,x10,255	 x10:0x00000065 x15=0x00000065
            934	       463	0010a084	00020737	lui	x14,0x20	 x14=0x00020000
            936	       464	0010a088	00f72023	sw	x15,0(x14)	 x14:0x00020000 x15:0x00000065 PA:0x00020000 store:0x00000065
            938	       465	0010a08c	00008067	jalr	x0,0(x1)	  x1:0x00106498  x0=0x00000000
            942	       467	00106498	00394503	lbu	x10,3(x18)	 x18:0x00137620 x10=0x00000078 PA:0x00137623 load:0x00000078
            944	       468	0010649c	015d07b3	add	x15,x26,x21	 x26:0x00137622 x21:0xffec89e1 x15=0x00000003
            946	       469	001064a0	00390993	addi	x19,x18,3	 x18:0x00137620 x19=0x00137623
            948	       470	001064a4	06050463	beq	x10,x0,10650c	 x10:0x00000078  x0:0x00000000
            950	       471	001064a8	3d9030ef	jal	x1,10a080	  x1=0x001064ac
            952	       472	0010a080	0ff57793	andi	x15,x10,255	 x10:0x00000078 x15=0x00000078
            954	       473	0010a084	00020737	lui	x14,0x20	 x14=0x00020000
            956	       474	0010a088	00f72023	sw	x15,0(x14)	 x14:0x00020000 x15:0x00000078 PA:0x00020000 store:0x00000078
            958	       475	0010a08c	00008067	jalr	x0,0(x1)	  x1:0x001064ac  x0=0x00000000
            962	       477	001064ac	00494503	lbu	x10,4(x18)	 x18:0x00137620 x10=0x00000020 PA:0x00137624 load:0x00000020
            964	       478	001064b0	015987b3	add	x15,x19,x21	 x19:0x00137623 x21:0xffec89e1 x15=0x00000004
            966	       479	001064b4	00490d93	addi	x27,x18,4	 x18:0x00137620 x27=0x00137624
            968	       480	001064b8	04050a63	beq	x10,x0,10650c	 x10:0x00000020  x0:0x00000000
            970	       481	001064bc	3c5030ef	jal	x1,10a080	  x1=0x001064c0
            972	       482	0010a080	0ff57793	andi	x15,x10,255	 x10:0x00000020 x15=0x00000020
            974	       483	0010a084	00020737	lui	x14,0x20	 x14=0x00020000
            976	       484	0010a088	00f72023	sw	x15,0(x14)	 x14:0x00020000 x15:0x00000020 PA:0x00020000 store:0x00000020
            978	       485	0010a08c	00008067	jalr	x0,0(x1)	  x1:0x001064c0  x0=0x00000000
            982	       487	001064c0	00594503	lbu	x10,5(x18)	 x18:0x00137620 x10=0x00000043 PA:0x00137625 load:0x00000043
            984	       488	001064c4	015d87b3	add	x15,x27,x21	 x27:0x00137624 x21:0xffec89e1 x15=0x00000005
            986	       489	001064c8	00590b93	addi	x23,x18,5	 x18:0x00137620 x23=0x00137625
            988	       490	001064cc	04050063	beq	x10,x0,10650c	 x10:0x00000043  x0:0x00000000
            990	       491	001064d0	3b1030ef	jal	x1,10a080	  x1=0x001064d4
            992	       492	0010a080	0ff57793	andi	x15,x10,255	 x10:0x00000043 x15=0x00000043
            994	       493	0010a084	00020737	lui	x14,0x20	 x14=0x00020000
            996	       494	0010a088	00f72023	sw	x15,0(x14)	 x14:0x00020000 x15:0x00000043 PA:0x00020000 store:0x00000043
            998	       495	0010a08c	00008067	jalr	x0,0(x1)	  x1:0x001064d4  x0=0x00000000
           1002	       497	001064d4	00694503	lbu	x10,6(x18)	 x18:0x00137620 x10=0x0000006f PA:0x00137626 load:0x0000006f
           1004	       498	001064d8	015b87b3	add	x15,x23,x21	 x23:0x00137625 x21:0xffec89e1 x15=0x00000006
           1006	       499	001064dc	00690c13	addi	x24,x18,6	 x18:0x00137620 x24=0x00137626
           1008	       500	001064e0	02050663	beq	x10,x0,10650c	 x10:0x0000006f  x0:0x00000000
           1010	       501	001064e4	39d030ef	jal	x1,10a080	  x1=0x001064e8
           1012	       502	0010a080	0ff57793	andi	x15,x10,255	 x10:0x0000006f x15=0x0000006f
           1014	       503	0010a084	00020737	lui	x14,0x20	 x14=0x00020000
           1016	       504	0010a088	00f72023	sw	x15,0(x14)	 x14:0x00020000 x15:0x0000006f PA:0x00020000 store:0x0000006f
           1018	       505	0010a08c	00008067	jalr	x0,0(x1)	  x1:0x001064e8  x0=0x00000000
           1022	       507	001064e8	00794503	lbu	x10,7(x18)	 x18:0x00137620 x10=0x00000072 PA:0x00137627 load:0x00000072
           1024	       508	001064ec	015c07b3	add	x15,x24,x21	 x24:0x00137626 x21:0xffec89e1 x15=0x00000007
           1026	       509	001064f0	00790493	addi	x9,x18,7	 x18:0x00137620  x9=0x00137627
           1028	       510	001064f4	00050c63	beq	x10,x0,10650c	 x10:0x00000072  x0:0x00000000
           1030	       511	001064f8	389030ef	jal	x1,10a080	  x1=0x001064fc
           1032	       512	0010a080	0ff57793	andi	x15,x10,255	 x10:0x00000072 x15=0x00000072
           1034	       513	0010a084	00020737	lui	x14,0x20	 x14=0x00020000
           1036	       514	0010a088	00f72023	sw	x15,0(x14)	 x14:0x00020000 x15:0x00000072 PA:0x00020000 store:0x00000072
           1038	       515	0010a08c	00008067	jalr	x0,0(x1)	  x1:0x001064fc  x0=0x00000000
           1042	       517	001064fc	00894503	lbu	x10,8(x18)	 x18:0x00137620 x10=0x00000065 PA:0x00137628 load:0x00000065
           1044	       518	00106500	00890913	addi	x18,x18,8	 x18:0x00137620 x18=0x00137628
           1046	       519	00106504	015487b3	add	x15,x9,x21	  x9:0x00137627 x21:0xffec89e1 x15=0x00000008
           1048	       520	00106508	f60512e3	bne	x10,x0,10646c	 x10:0x00000065  x0:0x00000000
           1050	       521	0010646c	415030ef	jal	x1,10a080	  x1=0x00106470
           1052	       522	0010a080	0ff57793	andi	x15,x10,255	 x10:0x00000065 x15=0x00000065
           1054	       523	0010a084	00020737	lui	x14,0x20	 x14=0x00020000
           1056	       524	0010a088	00f72023	sw	x15,0(x14)	 x14:0x00020000 x15:0x00000065 PA:0x00020000 store:0x00000065
           1058	       525	0010a08c	00008067	jalr	x0,0(x1)	  x1:0x00106470  x0=0x00000000
           1062	       527	00106470	00194503	lbu	x10,1(x18)	 x18:0x00137628 x10=0x0000004d PA:0x00137629 load:0x0000004d
           1064	       528	00106474	015907b3	add	x15,x18,x21	 x18:0x00137628 x21:0xffec89e1 x15=0x00000009
           1066	       529	00106478	00190b13	addi	x22,x18,1	 x18:0x00137628 x22=0x00137629
           1068	       530	0010647c	08050863	beq	x10,x0,10650c	 x10:0x0000004d  x0:0x00000000
           1070	       531	00106480	401030ef	jal	x1,10a080	  x1=0x00106484
           1072	       532	0010a080	0ff57793	andi	x15,x10,255	 x10:0x0000004d x15=0x0000004d
           1074	       533	0010a084	00020737	lui	x14,0x20	 x14=0x00020000
           1076	       534	0010a088	00f72023	sw	x15,0(x14)	 x14:0x00020000 x15:0x0000004d PA:0x00020000 store:0x0000004d
           1078	       535	0010a08c	00008067	jalr	x0,0(x1)	  x1:0x00106484  x0=0x00000000
           1082	       537	00106484	00294503	lbu	x10,2(x18)	 x18:0x00137628 x10=0x00000061 PA:0x0013762a load:0x00000061
           1084	       538	00106488	015b07b3	add	x15,x22,x21	 x22:0x00137629 x21:0xffec89e1 x15=0x0000000a
           1086	       539	0010648c	00290d13	addi	x26,x18,2	 x18:0x00137628 x26=0x0013762a
           1088	       540	00106490	06050e63	beq	x10,x0,10650c	 x10:0x00000061  x0:0x00000000
           1090	       541	00106494	3ed030ef	jal	x1,10a080	  x1=0x00106498
           1092	       542	0010a080	0ff57793	andi	x15,x10,255	 x10:0x00000061 x15=0x00000061
           1094	       543	0010a084	00020737	lui	x14,0x20	 x14=0x00020000
           1096	       544	0010a088	00f72023	sw	x15,0(x14)	 x14:0x00020000 x15:0x00000061 PA:0x00020000 store:0x00000061
           1098	       545	0010a08c	00008067	jalr	x0,0(x1)	  x1:0x00106498  x0=0x00000000
           1102	       547	00106498	00394503	lbu	x10,3(x18)	 x18:0x00137628 x10=0x00000072 PA:0x0013762b load:0x00000072
           1104	       548	0010649c	015d07b3	add	x15,x26,x21	 x26:0x0013762a x21:0xffec89e1 x15=0x0000000b
           1106	       549	001064a0	00390993	addi	x19,x18,3	 x18:0x00137628 x19=0x0013762b
           1108	       550	001064a4	06050463	beq	x10,x0,10650c	 x10:0x00000072  x0:0x00000000
           1110	       551	001064a8	3d9030ef	jal	x1,10a080	  x1=0x001064ac
           1112	       552	0010a080	0ff57793	andi	x15,x10,255	 x10:0x00000072 x15=0x00000072
           1114	       553	0010a084	00020737	lui	x14,0x20	 x14=0x00020000
           1116	       554	0010a088	00f72023	sw	x15,0(x14)	 x14:0x00020000 x15:0x00000072 PA:0x00020000 store:0x00000072
           1118	       555	0010a08c	00008067	jalr	x0,0(x1)	  x1:0x001064ac  x0=0x00000000
           1122	       557	001064ac	00494503	lbu	x10,4(x18)	 x18:0x00137628 x10=0x0000006b PA:0x0013762c load:0x0000006b
           1124	       558	001064b0	015987b3	add	x15,x19,x21	 x19:0x0013762b x21:0xffec89e1 x15=0x0000000c
           1126	       559	001064b4	00490d93	addi	x27,x18,4	 x18:0x00137628 x27=0x0013762c
           1128	       560	001064b8	04050a63	beq	x10,x0,10650c	 x10:0x0000006b  x0:0x00000000
           1130	       561	001064bc	3c5030ef	jal	x1,10a080	  x1=0x001064c0
           1132	       562	0010a080	0ff57793	andi	x15,x10,255	 x10:0x0000006b x15=0x0000006b
           1134	       563	0010a084	00020737	lui	x14,0x20	 x14=0x00020000
           1136	       564	0010a088	00f72023	sw	x15,0(x14)	 x14:0x00020000 x15:0x0000006b PA:0x00020000 store:0x0000006b
           1138	       565	0010a08c	00008067	jalr	x0,0(x1)	  x1:0x001064c0  x0=0x00000000
           1142	       567	001064c0	00594503	lbu	x10,5(x18)	 x18:0x00137628 x10=0x00000020 PA:0x0013762d load:0x00000020
           1144	       568	001064c4	015d87b3	add	x15,x27,x21	 x27:0x0013762c x21:0xffec89e1 x15=0x0000000d
           1146	       569	001064c8	00590b93	addi	x23,x18,5	 x18:0x00137628 x23=0x0013762d
           1148	       570	001064cc	04050063	beq	x10,x0,10650c	 x10:0x00000020  x0:0x00000000
           1150	       571	001064d0	3b1030ef	jal	x1,10a080	  x1=0x001064d4
           1152	       572	0010a080	0ff57793	andi	x15,x10,255	 x10:0x00000020 x15=0x00000020
           1154	       573	0010a084	00020737	lui	x14,0x20	 x14=0x00020000
           1156	       574	0010a088	00f72023	sw	x15,0(x14)	 x14:0x00020000 x15:0x00000020 PA:0x00020000 store:0x00000020
           1158	       575	0010a08c	00008067	jalr	x0,0(x1)	  x1:0x001064d4  x0=0x00000000
           1162	       577	001064d4	00694503	lbu	x10,6(x18)	 x18:0x00137628 x10=0x00000070 PA:0x0013762e load:0x00000070
           1164	       578	001064d8	015b87b3	add	x15,x23,x21	 x23:0x0013762d x21:0xffec89e1 x15=0x0000000e
           1166	       579	001064dc	00690c13	addi	x24,x18,6	 x18:0x00137628 x24=0x0013762e
           1168	       580	001064e0	02050663	beq	x10,x0,10650c	 x10:0x00000070  x0:0x00000000
           1170	       581	001064e4	39d030ef	jal	x1,10a080	  x1=0x001064e8
           1172	       582	0010a080	0ff57793	andi	x15,x10,255	 x10:0x00000070 x15=0x00000070
           1174	       583	0010a084	00020737	lui	x14,0x20	 x14=0x00020000
           1176	       584	0010a088	00f72023	sw	x15,0(x14)	 x14:0x00020000 x15:0x00000070 PA:0x00020000 store:0x00000070
           1178	       585	0010a08c	00008067	jalr	x0,0(x1)	  x1:0x001064e8  x0=0x00000000
           1182	       587	001064e8	00794503	lbu	x10,7(x18)	 x18:0x00137628 x10=0x0000006c PA:0x0013762f load:0x0000006c
           1184	       588	001064ec	015c07b3	add	x15,x24,x21	 x24:0x0013762e x21:0xffec89e1 x15=0x0000000f
           1186	       589	001064f0	00790493	addi	x9,x18,7	 x18:0x00137628  x9=0x0013762f
           1188	       590	001064f4	00050c63	beq	x10,x0,10650c	 x10:0x0000006c  x0:0x00000000
           1190	       591	001064f8	389030ef	jal	x1,10a080	  x1=0x001064fc
           1192	       592	0010a080	0ff57793	andi	x15,x10,255	 x10:0x0000006c x15=0x0000006c
           1194	       593	0010a084	00020737	lui	x14,0x20	 x14=0x00020000
           1196	       594	0010a088	00f72023	sw	x15,0(x14)	 x14:0x00020000 x15:0x0000006c PA:0x00020000 store:0x0000006c
           1198	       595	0010a08c	00008067	jalr	x0,0(x1)	  x1:0x001064fc  x0=0x00000000
           1202	       597	001064fc	00894503	lbu	x10,8(x18)	 x18:0x00137628 x10=0x00000061 PA:0x00137630 load:0x00000061
           1204	       598	00106500	00890913	addi	x18,x18,8	 x18:0x00137628 x18=0x00137630
           1206	       599	00106504	015487b3	add	x15,x9,x21	  x9:0x0013762f x21:0xffec89e1 x15=0x00000010
           1208	       600	00106508	f60512e3	bne	x10,x0,10646c	 x10:0x00000061  x0:0x00000000
           1210	       601	0010646c	415030ef	jal	x1,10a080	  x1=0x00106470
           1212	       602	0010a080	0ff57793	andi	x15,x10,255	 x10:0x00000061 x15=0x00000061
           1214	       603	0010a084	00020737	lui	x14,0x20	 x14=0x00020000
           1216	       604	0010a088	00f72023	sw	x15,0(x14)	 x14:0x00020000 x15:0x00000061 PA:0x00020000 store:0x00000061
           1218	       605	0010a08c	00008067	jalr	x0,0(x1)	  x1:0x00106470  x0=0x00000000
           1222	       607	00106470	00194503	lbu	x10,1(x18)	 x18:0x00137630 x10=0x00000074 PA:0x00137631 load:0x00000074
           1224	       608	00106474	015907b3	add	x15,x18,x21	 x18:0x00137630 x21:0xffec89e1 x15=0x00000011
           1226	       609	00106478	00190b13	addi	x22,x18,1	 x18:0x00137630 x22=0x00137631
           1228	       610	0010647c	08050863	beq	x10,x0,10650c	 x10:0x00000074  x0:0x00000000
           1230	       611	00106480	401030ef	jal	x1,10a080	  x1=0x00106484
           1232	       612	0010a080	0ff57793	andi	x15,x10,255	 x10:0x00000074 x15=0x00000074
           1234	       613	0010a084	00020737	lui	x14,0x20	 x14=0x00020000
           1236	       614	0010a088	00f72023	sw	x15,0(x14)	 x14:0x00020000 x15:0x00000074 PA:0x00020000 store:0x00000074
           1238	       615	0010a08c	00008067	jalr	x0,0(x1)	  x1:0x00106484  x0=0x00000000
           1242	       617	00106484	00294503	lbu	x10,2(x18)	 x18:0x00137630 x10=0x00000066 PA:0x00137632 load:0x00000066
           1244	       618	00106488	015b07b3	add	x15,x22,x21	 x22:0x00137631 x21:0xffec89e1 x15=0x00000012
           1246	       619	0010648c	00290d13	addi	x26,x18,2	 x18:0x00137630 x26=0x00137632
           1248	       620	00106490	06050e63	beq	x10,x0,10650c	 x10:0x00000066  x0:0x00000000
           1250	       621	00106494	3ed030ef	jal	x1,10a080	  x1=0x00106498
           1252	       622	0010a080	0ff57793	andi	x15,x10,255	 x10:0x00000066 x15=0x00000066
           1254	       623	0010a084	00020737	lui	x14,0x20	 x14=0x00020000
           1256	       624	0010a088	00f72023	sw	x15,0(x14)	 x14:0x00020000 x15:0x00000066 PA:0x00020000 store:0x00000066
           1258	       625	0010a08c	00008067	jalr	x0,0(x1)	  x1:0x00106498  x0=0x00000000
           1262	       627	00106498	00394503	lbu	x10,3(x18)	 x18:0x00137630 x10=0x0000006f PA:0x00137633 load:0x0000006f
           1264	       628	0010649c	015d07b3	add	x15,x26,x21	 x26:0x00137632 x21:0xffec89e1 x15=0x00000013
           1266	       629	001064a0	00390993	addi	x19,x18,3	 x18:0x00137630 x19=0x00137633
           1268	       630	001064a4	06050463	beq	x10,x0,10650c	 x10:0x0000006f  x0:0x00000000
           1270	       631	001064a8	3d9030ef	jal	x1,10a080	  x1=0x001064ac
           1272	       632	0010a080	0ff57793	andi	x15,x10,255	 x10:0x0000006f x15=0x0000006f
           1274	       633	0010a084	00020737	lui	x14,0x20	 x14=0x00020000
           1276	       634	0010a088	00f72023	sw	x15,0(x14)	 x14:0x00020000 x15:0x0000006f PA:0x00020000 store:0x0000006f
           1278	       635	0010a08c	00008067	jalr	x0,0(x1)	  x1:0x001064ac  x0=0x00000000
           1282	       637	001064ac	00494503	lbu	x10,4(x18)	 x18:0x00137630 x10=0x00000072 PA:0x00137634 load:0x00000072
           1284	       638	001064b0	015987b3	add	x15,x19,x21	 x19:0x00137633 x21:0xffec89e1 x15=0x00000014
           1286	       639	001064b4	00490d93	addi	x27,x18,4	 x18:0x00137630 x27=0x00137634
           1288	       640	001064b8	04050a63	beq	x10,x0,10650c	 x10:0x00000072  x0:0x00000000
           1290	       641	001064bc	3c5030ef	jal	x1,10a080	  x1=0x001064c0
           1292	       642	0010a080	0ff57793	andi	x15,x10,255	 x10:0x00000072 x15=0x00000072
           1294	       643	0010a084	00020737	lui	x14,0x20	 x14=0x00020000
           1296	       644	0010a088	00f72023	sw	x15,0(x14)	 x14:0x00020000 x15:0x00000072 PA:0x00020000 store:0x00000072
           1298	       645	0010a08c	00008067	jalr	x0,0(x1)	  x1:0x001064c0  x0=0x00000000
           1302	       647	001064c0	00594503	lbu	x10,5(x18)	 x18:0x00137630 x10=0x0000006d PA:0x00137635 load:0x0000006d
           1304	       648	001064c4	015d87b3	add	x15,x27,x21	 x27:0x00137634 x21:0xffec89e1 x15=0x00000015
           1306	       649	001064c8	00590b93	addi	x23,x18,5	 x18:0x00137630 x23=0x00137635
           1308	       650	001064cc	04050063	beq	x10,x0,10650c	 x10:0x0000006d  x0:0x00000000
           1310	       651	001064d0	3b1030ef	jal	x1,10a080	  x1=0x001064d4
           1312	       652	0010a080	0ff57793	andi	x15,x10,255	 x10:0x0000006d x15=0x0000006d
           1314	       653	0010a084	00020737	lui	x14,0x20	 x14=0x00020000
           1316	       654	0010a088	00f72023	sw	x15,0(x14)	 x14:0x00020000 x15:0x0000006d PA:0x00020000 store:0x0000006d
           1318	       655	0010a08c	00008067	jalr	x0,0(x1)	  x1:0x001064d4  x0=0x00000000
           1322	       657	001064d4	00694503	lbu	x10,6(x18)	 x18:0x00137630 x10=0x00000020 PA:0x00137636 load:0x00000020
           1324	       658	001064d8	015b87b3	add	x15,x23,x21	 x23:0x00137635 x21:0xffec89e1 x15=0x00000016
           1326	       659	001064dc	00690c13	addi	x24,x18,6	 x18:0x00137630 x24=0x00137636
           1328	       660	001064e0	02050663	beq	x10,x0,10650c	 x10:0x00000020  x0:0x00000000
           1330	       661	001064e4	39d030ef	jal	x1,10a080	  x1=0x001064e8
           1332	       662	0010a080	0ff57793	andi	x15,x10,255	 x10:0x00000020 x15=0x00000020
           1334	       663	0010a084	00020737	lui	x14,0x20	 x14=0x00020000
           1336	       664	0010a088	00f72023	sw	x15,0(x14)	 x14:0x00020000 x15:0x00000020 PA:0x00020000 store:0x00000020
           1338	       665	0010a08c	00008067	jalr	x0,0(x1)	  x1:0x001064e8  x0=0x00000000
           1342	       667	001064e8	00794503	lbu	x10,7(x18)	 x18:0x00137630 x10=0x00000069 PA:0x00137637 load:0x00000069
           1344	       668	001064ec	015c07b3	add	x15,x24,x21	 x24:0x00137636 x21:0xffec89e1 x15=0x00000017
           1346	       669	001064f0	00790493	addi	x9,x18,7	 x18:0x00137630  x9=0x00137637
           1348	       670	001064f4	00050c63	beq	x10,x0,10650c	 x10:0x00000069  x0:0x00000000
           1350	       671	001064f8	389030ef	jal	x1,10a080	  x1=0x001064fc
           1352	       672	0010a080	0ff57793	andi	x15,x10,255	 x10:0x00000069 x15=0x00000069
           1354	       673	0010a084	00020737	lui	x14,0x20	 x14=0x00020000
           1356	       674	0010a088	00f72023	sw	x15,0(x14)	 x14:0x00020000 x15:0x00000069 PA:0x00020000 store:0x00000069
           1358	       675	0010a08c	00008067	jalr	x0,0(x1)	  x1:0x001064fc  x0=0x00000000
           1362	       677	001064fc	00894503	lbu	x10,8(x18)	 x18:0x00137630 x10=0x0000006e PA:0x00137638 load:0x0000006e
           1364	       678	00106500	00890913	addi	x18,x18,8	 x18:0x00137630 x18=0x00137638
           1366	       679	00106504	015487b3	add	x15,x9,x21	  x9:0x00137637 x21:0xffec89e1 x15=0x00000018
           1368	       680	00106508	f60512e3	bne	x10,x0,10646c	 x10:0x0000006e  x0:0x00000000
           1370	       681	0010646c	415030ef	jal	x1,10a080	  x1=0x00106470
           1372	       682	0010a080	0ff57793	andi	x15,x10,255	 x10:0x0000006e x15=0x0000006e
           1374	       683	0010a084	00020737	lui	x14,0x20	 x14=0x00020000
           1376	       684	0010a088	00f72023	sw	x15,0(x14)	 x14:0x00020000 x15:0x0000006e PA:0x00020000 store:0x0000006e
           1378	       685	0010a08c	00008067	jalr	x0,0(x1)	  x1:0x00106470  x0=0x00000000
           1382	       687	00106470	00194503	lbu	x10,1(x18)	 x18:0x00137638 x10=0x00000069 PA:0x00137639 load:0x00000069
           1384	       688	00106474	015907b3	add	x15,x18,x21	 x18:0x00137638 x21:0xffec89e1 x15=0x00000019
           1386	       689	00106478	00190b13	addi	x22,x18,1	 x18:0x00137638 x22=0x00137639
           1388	       690	0010647c	08050863	beq	x10,x0,10650c	 x10:0x00000069  x0:0x00000000
           1390	       691	00106480	401030ef	jal	x1,10a080	  x1=0x00106484
           1392	       692	0010a080	0ff57793	andi	x15,x10,255	 x10:0x00000069 x15=0x00000069
           1394	       693	0010a084	00020737	lui	x14,0x20	 x14=0x00020000
           1396	       694	0010a088	00f72023	sw	x15,0(x14)	 x14:0x00020000 x15:0x00000069 PA:0x00020000 store:0x00000069
           1398	       695	0010a08c	00008067	jalr	x0,0(x1)	  x1:0x00106484  x0=0x00000000
           1402	       697	00106484	00294503	lbu	x10,2(x18)	 x18:0x00137638 x10=0x00000074 PA:0x0013763a load:0x00000074
           1404	       698	00106488	015b07b3	add	x15,x22,x21	 x22:0x00137639 x21:0xffec89e1 x15=0x0000001a
           1406	       699	0010648c	00290d13	addi	x26,x18,2	 x18:0x00137638 x26=0x0013763a
           1408	       700	00106490	06050e63	beq	x10,x0,10650c	 x10:0x00000074  x0:0x00000000
           1410	       701	00106494	3ed030ef	jal	x1,10a080	  x1=0x00106498
           1412	       702	0010a080	0ff57793	andi	x15,x10,255	 x10:0x00000074 x15=0x00000074
           1414	       703	0010a084	00020737	lui	x14,0x20	 x14=0x00020000
           1416	       704	0010a088	00f72023	sw	x15,0(x14)	 x14:0x00020000 x15:0x00000074 PA:0x00020000 store:0x00000074
           1418	       705	0010a08c	00008067	jalr	x0,0(x1)	  x1:0x00106498  x0=0x00000000
           1422	       707	00106498	00394503	lbu	x10,3(x18)	 x18:0x00137638 x10=0x0000002e PA:0x0013763b load:0x0000002e
           1424	       708	0010649c	015d07b3	add	x15,x26,x21	 x26:0x0013763a x21:0xffec89e1 x15=0x0000001b
           1426	       709	001064a0	00390993	addi	x19,x18,3	 x18:0x00137638 x19=0x0013763b
           1428	       710	001064a4	06050463	beq	x10,x0,10650c	 x10:0x0000002e  x0:0x00000000
           1430	       711	001064a8	3d9030ef	jal	x1,10a080	  x1=0x001064ac
           1432	       712	0010a080	0ff57793	andi	x15,x10,255	 x10:0x0000002e x15=0x0000002e
           1434	       713	0010a084	00020737	lui	x14,0x20	 x14=0x00020000
           1436	       714	0010a088	00f72023	sw	x15,0(x14)	 x14:0x00020000 x15:0x0000002e PA:0x00020000 store:0x0000002e
           1438	       715	0010a08c	00008067	jalr	x0,0(x1)	  x1:0x001064ac  x0=0x00000000
           1442	       717	001064ac	00494503	lbu	x10,4(x18)	 x18:0x00137638 x10=0x0000002e PA:0x0013763c load:0x0000002e
           1444	       718	001064b0	015987b3	add	x15,x19,x21	 x19:0x0013763b x21:0xffec89e1 x15=0x0000001c
           1446	       719	001064b4	00490d93	addi	x27,x18,4	 x18:0x00137638 x27=0x0013763c
           1448	       720	001064b8	04050a63	beq	x10,x0,10650c	 x10:0x0000002e  x0:0x00000000
           1450	       721	001064bc	3c5030ef	jal	x1,10a080	  x1=0x001064c0
           1452	       722	0010a080	0ff57793	andi	x15,x10,255	 x10:0x0000002e x15=0x0000002e
           1454	       723	0010a084	00020737	lui	x14,0x20	 x14=0x00020000
           1456	       724	0010a088	00f72023	sw	x15,0(x14)	 x14:0x00020000 x15:0x0000002e PA:0x00020000 store:0x0000002e
           1458	       725	0010a08c	00008067	jalr	x0,0(x1)	  x1:0x001064c0  x0=0x00000000
           1462	       727	001064c0	00594503	lbu	x10,5(x18)	 x18:0x00137638 x10=0x0000002e PA:0x0013763d load:0x0000002e
           1464	       728	001064c4	015d87b3	add	x15,x27,x21	 x27:0x0013763c x21:0xffec89e1 x15=0x0000001d
           1466	       729	001064c8	00590b93	addi	x23,x18,5	 x18:0x00137638 x23=0x0013763d
           1468	       730	001064cc	04050063	beq	x10,x0,10650c	 x10:0x0000002e  x0:0x00000000
           1470	       731	001064d0	3b1030ef	jal	x1,10a080	  x1=0x001064d4
           1472	       732	0010a080	0ff57793	andi	x15,x10,255	 x10:0x0000002e x15=0x0000002e
           1474	       733	0010a084	00020737	lui	x14,0x20	 x14=0x00020000
           1476	       734	0010a088	00f72023	sw	x15,0(x14)	 x14:0x00020000 x15:0x0000002e PA:0x00020000 store:0x0000002e
           1478	       735	0010a08c	00008067	jalr	x0,0(x1)	  x1:0x001064d4  x0=0x00000000
           1482	       737	001064d4	00694503	lbu	x10,6(x18)	 x18:0x00137638 x10=0x0000000a PA:0x0013763e load:0x0000000a
           1484	       738	001064d8	015b87b3	add	x15,x23,x21	 x23:0x0013763d x21:0xffec89e1 x15=0x0000001e
           1486	       739	001064dc	00690c13	addi	x24,x18,6	 x18:0x00137638 x24=0x0013763e
           1488	       740	001064e0	02050663	beq	x10,x0,10650c	 x10:0x0000000a  x0:0x00000000
           1490	       741	001064e4	39d030ef	jal	x1,10a080	  x1=0x001064e8
           1492	       742	0010a080	0ff57793	andi	x15,x10,255	 x10:0x0000000a x15=0x0000000a
           1494	       743	0010a084	00020737	lui	x14,0x20	 x14=0x00020000
           1496	       744	0010a088	00f72023	sw	x15,0(x14)	 x14:0x00020000 x15:0x0000000a PA:0x00020000 store:0x0000000a
           1498	       745	0010a08c	00008067	jalr	x0,0(x1)	  x1:0x001064e8  x0=0x00000000
           1502	       747	001064e8	00794503	lbu	x10,7(x18)	 x18:0x00137638 x10=0x00000000 PA:0x0013763f load:0x00000000
           1504	       748	001064ec	015c07b3	add	x15,x24,x21	 x24:0x0013763e x21:0xffec89e1 x15=0x0000001f
           1506	       749	001064f0	00790493	addi	x9,x18,7	 x18:0x00137638  x9=0x0013763f
           1508	       750	001064f4	00050c63	beq	x10,x0,10650c	 x10:0x00000000  x0:0x00000000
           1512	       752	0010650c	1fc12083	lw	x1,508(x2)	  x2:0x00137560  x1=0x001058fc PA:0x0013775c load:0x001058fc
           1514	       753	00106510	1f812403	lw	x8,504(x2)	  x2:0x00137560  x8=0x001377ee PA:0x00137758 load:0x001377ee
           1516	       754	00106514	1f412483	lw	x9,500(x2)	  x2:0x00137560  x9=0x00136fc0 PA:0x00137754 load:0x00136fc0
           1518	       755	00106518	1f012903	lw	x18,496(x2)	  x2:0x00137560 x18=0x00000000 PA:0x00137750 load:0x00000000
           1520	       756	0010651c	1ec12983	lw	x19,492(x2)	  x2:0x00137560 x19=0x00000000 PA:0x0013774c load:0x00000000
           1522	       757	00106520	1e812a03	lw	x20,488(x2)	  x2:0x00137560 x20=0x00000000 PA:0x00137748 load:0x00000000
           1524	       758	00106524	1e412a83	lw	x21,484(x2)	  x2:0x00137560 x21=0x00000000 PA:0x00137744 load:0x00000000
           1526	       759	00106528	1e012b03	lw	x22,480(x2)	  x2:0x00137560 x22=0x00000000 PA:0x00137740 load:0x00000000
           1528	       760	0010652c	1dc12b83	lw	x23,476(x2)	  x2:0x00137560 x23=0x00000000 PA:0x0013773c load:0x00000000
           1530	       761	00106530	1d812c03	lw	x24,472(x2)	  x2:0x00137560 x24=0x00000000 PA:0x00137738 load:0x00000000
           1532	       762	00106534	1d412c83	lw	x25,468(x2)	  x2:0x00137560 x25=0x00000000 PA:0x00137734 load:0x00000000
           1534	       763	00106538	1d012d03	lw	x26,464(x2)	  x2:0x00137560 x26=0x0010e384 PA:0x00137730 load:0x0010e384
           1536	       764	0010653c	1cc12d83	lw	x27,460(x2)	  x2:0x00137560 x27=0x0010e380 PA:0x0013772c load:0x0010e380
           1538	       765	00106540	00078513	addi	x10,x15,0	 x15:0x0000001f x10=0x0000001f
           1540	       766	00106544	22010113	addi	x2,x2,544	  x2:0x00137560  x2=0x00137780
           1542	       767	00106548	00008067	jalr	x0,0(x1)	  x1:0x001058fc  x0=0x00000000
           1546	       769	001058fc	00100793	addi	x15,x0,1	  x0:0x00000000 x15=0x00000001
           1548	       770	00105900	00f40023	sb	x15,0(x8)	  x8:0x001377ee x15:0x00000001 PA:0x001377ee store:0x00000001
           1550	       771	00105904	7c00e073	csrrsi	x0,0x7c0,1	  x0=0x00000000
           1556	       774	00105908	00c12083	lw	x1,12(x2)	  x2:0x00137780  x1=0x0010cb04 PA:0x0013778c load:0x0010cb04
           1558	       775	0010590c	00812403	lw	x8,8(x2)	  x2:0x00137780  x8=0x00137fc0 PA:0x00137788 load:0x00137fc0
           1560	       776	00105910	01010113	addi	x2,x2,16	  x2:0x00137780  x2=0x00137790
           1562	       777	00105914	00008067	jalr	x0,0(x1)	  x1:0x0010cb04  x0=0x00000000
           1570	       781	0010cb04	00100513	addi	x10,x0,1	  x0:0x00000000 x10=0x00000001
           1574	       783	0010cb08	828f80ef	jal	x1,104b30	  x1=0x0010cb0c
           1582	       787	00104b30	00500793	addi	x15,x0,5	  x0:0x00000000 x15=0x00000005
           1584	       788	00104b34	04a7ec63	bltu	x15,x10,104b8c	 x15:0x00000005 x10:0x00000001
           1586	       789	00104b38	0010e2b7	lui	x5,0x10e	  x5=0x0010e000
           1588	       790	00104b3c	00251513	slli	x10,x10,0x2	 x10:0x00000001 x10=0x00000004
           1590	       791	00104b40	8d028313	addi	x6,x5,-1840	  x5:0x0010e000  x6=0x0010d8d0
           1592	       792	00104b44	006503b3	add	x7,x10,x6	 x10:0x00000004  x6:0x0010d8d0  x7=0x0010d8d4
           1594	       793	00104b48	0003a583	lw	x11,0(x7)	  x7:0x0010d8d4 x11=0x00104b5c PA:0x0010d8d4 load:0x00104b5c
           1598	       795	00104b4c	00058067	jalr	x0,0(x11)	 x11:0x00104b5c  x0=0x00000000
           1608	       800	00104b5c	0010e8b7	lui	x17,0x10e	 x17=0x0010e000
           1612	       802	00104b60	3188a503	lw	x10,792(x17)	 x17:0x0010e000 x10=0x00000000 PA:0x0010e318 load:0x00000000
           1614	       803	00104b64	00008067	jalr	x0,0(x1)	  x1:0x0010cb0c  x0=0x00000000
           1618	       805	0010cb0c	00812883	lw	x17,8(x2)	  x2:0x00137790 x17=0x00136fc0 PA:0x00137798 load:0x00136fc0
           1620	       806	0010cb10	00050813	addi	x16,x10,0	 x10:0x00000000 x16=0x00000000
           1622	       807	0010cb14	00200513	addi	x10,x0,2	  x0:0x00000000 x10=0x00000002
           1626	       809	0010cb18	7f089623	sh	x16,2028(x17)	 x17:0x00136fc0 x16:0x00000000 PA:0x001377ac store:0x00000000
           1628	       810	0010cb1c	814f80ef	jal	x1,104b30	  x1=0x0010cb20
           1634	       813	00104b30	00500793	addi	x15,x0,5	  x0:0x00000000 x15=0x00000005
           1636	       814	00104b34	04a7ec63	bltu	x15,x10,104b8c	 x15:0x00000005 x10:0x00000002
           1638	       815	00104b38	0010e2b7	lui	x5,0x10e	  x5=0x0010e000
           1640	       816	00104b3c	00251513	slli	x10,x10,0x2	 x10:0x00000002 x10=0x00000008
           1642	       817	00104b40	8d028313	addi	x6,x5,-1840	  x5:0x0010e000  x6=0x0010d8d0
           1644	       818	00104b44	006503b3	add	x7,x10,x6	 x10:0x00000008  x6:0x0010d8d0  x7=0x0010d8d8
           1646	       819	00104b48	0003a583	lw	x11,0(x7)	  x7:0x0010d8d8 x11=0x00104b68 PA:0x0010d8d8 load:0x00104b68
           1650	       821	00104b4c	00058067	jalr	x0,0(x11)	 x11:0x00104b68  x0=0x00000000
           1654	       823	00104b68	0010e837	lui	x16,0x10e	 x16=0x0010e000
           1656	       824	00104b6c	31482503	lw	x10,788(x16)	 x16:0x0010e000 x10=0x00000000 PA:0x0010e314 load:0x00000000
           1658	       825	00104b70	00008067	jalr	x0,0(x1)	  x1:0x0010cb20  x0=0x00000000
           1662	       827	0010cb20	00812983	lw	x19,8(x2)	  x2:0x00137790 x19=0x00136fc0 PA:0x00137798 load:0x00136fc0
           1664	       828	0010cb24	00050913	addi	x18,x10,0	 x10:0x00000000 x18=0x00000000
           1666	       829	0010cb28	00300513	addi	x10,x0,3	  x0:0x00000000 x10=0x00000003
           1668	       830	0010cb2c	7f299723	sh	x18,2030(x19)	 x19:0x00136fc0 x18:0x00000000 PA:0x001377ae store:0x00000000
           1672	       832	0010cb30	800f80ef	jal	x1,104b30	  x1=0x0010cb34
           1674	       833	00104b30	00500793	addi	x15,x0,5	  x0:0x00000000 x15=0x00000005
           1676	       834	00104b34	04a7ec63	bltu	x15,x10,104b8c	 x15:0x00000005 x10:0x00000003
           1678	       835	00104b38	0010e2b7	lui	x5,0x10e	  x5=0x0010e000
           1680	       836	00104b3c	00251513	slli	x10,x10,0x2	 x10:0x00000003 x10=0x0000000c
           1682	       837	00104b40	8d028313	addi	x6,x5,-1840	  x5:0x0010e000  x6=0x0010d8d0
           1684	       838	00104b44	006503b3	add	x7,x10,x6	 x10:0x0000000c  x6:0x0010d8d0  x7=0x0010d8dc
           1686	       839	00104b48	0003a583	lw	x11,0(x7)	  x7:0x0010d8dc x11=0x00104b74 PA:0x0010d8dc load:0x00104b74
           1690	       841	00104b4c	00058067	jalr	x0,0(x11)	 x11:0x00104b74  x0=0x00000000
           1694	       843	00104b74	0010e737	lui	x14,0x10e	 x14=0x0010e000
           1696	       844	00104b78	2cc72503	lw	x10,716(x14)	 x14:0x0010e000 x10=0x00000066 PA:0x0010e2cc load:0x00000066
           1698	       845	00104b7c	00008067	jalr	x0,0(x1)	  x1:0x0010cb34  x0=0x00000000
           1702	       847	0010cb34	00812a83	lw	x21,8(x2)	  x2:0x00137790 x21=0x00136fc0 PA:0x00137798 load:0x00136fc0
           1704	       848	0010cb38	00050a13	addi	x20,x10,0	 x10:0x00000066 x20=0x00000066
           1706	       849	0010cb3c	00400513	addi	x10,x0,4	  x0:0x00000000 x10=0x00000004
           1710	       851	0010cb40	7f4a9823	sh	x20,2032(x21)	 x21:0x00136fc0 x20:0x00000066 PA:0x001377b0 store:0x00000066
           1712	       852	0010cb44	fedf70ef	jal	x1,104b30	  x1=0x0010cb48
           1718	       855	00104b30	00500793	addi	x15,x0,5	  x0:0x00000000 x15=0x00000005
           1720	       856	00104b34	04a7ec63	bltu	x15,x10,104b8c	 x15:0x00000005 x10:0x00000004
           1722	       857	00104b38	0010e2b7	lui	x5,0x10e	  x5=0x0010e000
           1724	       858	00104b3c	00251513	slli	x10,x10,0x2	 x10:0x00000004 x10=0x00000010
           1726	       859	00104b40	8d028313	addi	x6,x5,-1840	  x5:0x0010e000  x6=0x0010d8d0
           1728	       860	00104b44	006503b3	add	x7,x10,x6	 x10:0x00000010  x6:0x0010d8d0  x7=0x0010d8e0
           1730	       861	00104b48	0003a583	lw	x11,0(x7)	  x7:0x0010d8e0 x11=0x00104b80 PA:0x0010d8e0 load:0x00104b80
           1734	       863	00104b4c	00058067	jalr	x0,0(x11)	 x11:0x00104b80  x0=0x00000000
           1738	       865	00104b80	0010e6b7	lui	x13,0x10e	 x13=0x0010e000
           1740	       866	00104b84	2c86a503	lw	x10,712(x13)	 x13:0x0010e000 x10=0x0000000a PA:0x0010e2c8 load:0x0000000a
           1742	       867	00104b88	00008067	jalr	x0,0(x1)	  x1:0x0010cb48  x0=0x00000000
           1746	       869	0010cb48	00050b13	addi	x22,x10,0	 x10:0x0000000a x22=0x0000000a
           1748	       870	0010cb4c	00500513	addi	x10,x0,5	  x0:0x00000000 x10=0x00000005
           1750	       871	0010cb50	03612c23	sw	x22,56(x2)	  x2:0x00137790 x22:0x0000000a PA:0x001377c8 store:0x0000000a
           1752	       872	0010cb54	fddf70ef	jal	x1,104b30	  x1=0x0010cb58
           1754	       873	00104b30	00500793	addi	x15,x0,5	  x0:0x00000000 x15=0x00000005
           1756	       874	00104b34	04a7ec63	bltu	x15,x10,104b8c	 x15:0x00000005 x10:0x00000005
           1758	       875	00104b38	0010e2b7	lui	x5,0x10e	  x5=0x0010e000
           1760	       876	00104b3c	00251513	slli	x10,x10,0x2	 x10:0x00000005 x10=0x00000014
           1762	       877	00104b40	8d028313	addi	x6,x5,-1840	  x5:0x0010e000  x6=0x0010d8d0
           1764	       878	00104b44	006503b3	add	x7,x10,x6	 x10:0x00000014  x6:0x0010d8d0  x7=0x0010d8e4
           1766	       879	00104b48	0003a583	lw	x11,0(x7)	  x7:0x0010d8e4 x11=0x00104b50 PA:0x0010d8e4 load:0x00104b50
           1770	       881	00104b4c	00058067	jalr	x0,0(x11)	 x11:0x00104b50  x0=0x00000000
           1774	       883	00104b50	0010e637	lui	x12,0x10e	 x12=0x0010e000
           1776	       884	00104b54	31062503	lw	x10,784(x12)	 x12:0x0010e000 x10=0x00000000 PA:0x0010e310 load:0x00000000
           1778	       885	00104b58	00008067	jalr	x0,0(x1)	  x1:0x0010cb58  x0=0x00000000
           1782	       887	0010cb58	320500e3	beq	x10,x0,10d678	 x10:0x00000000  x0:0x00000000
           1790	       891	0010d678	00700b93	addi	x23,x0,7	  x0:0x00000000 x23=0x00000007
           1792	       892	0010d67c	03712e23	sw	x23,60(x2)	  x2:0x00137790 x23:0x00000007 PA:0x001377cc store:0x00000007
           1794	       893	0010d680	ce0ff06f	jal	x0,10cb60	  x0=0x00000000
           1796	       894	0010cb60	00001cb7	lui	x25,0x1	 x25=0x00001000
           1798	       895	0010cb64	820c8d13	addi	x26,x25,-2016	 x25:0x00001000 x26=0x00000820
           1804	       898	0010cb68	01010d93	addi	x27,x2,16	  x2:0x00137790 x27=0x001377a0
           1806	       899	0010cb6c	fffffc37	lui	x24,0xfffff	 x24=0xfffff000
           1808	       900	0010cb70	01bd0e33	add	x28,x26,x27	 x26:0x00000820 x27:0x001377a0 x28=0x00137fc0
           1810	       901	0010cb74	018e0eb3	add	x29,x28,x24	 x28:0x00137fc0 x24:0xfffff000 x29=0x00136fc0
           1812	       902	0010cb78	7eceaf03	lw	x30,2028(x29)	 x29:0x00136fc0 x30=0x00000000 PA:0x001377ac load:0x00000000
           1814	       903	0010cb7c	01d12423	sw	x29,8(x2)	  x2:0x00137790 x29:0x00136fc0 PA:0x00137798 store:0x00136fc0
           1816	       904	0010cb80	2c0f14e3	bne	x30,x0,10d648	 x30:0x00000000  x0:0x00000000
           1818	       905	0010cb84	00812083	lw	x1,8(x2)	  x2:0x00137790  x1=0x00136fc0 PA:0x00137798 load:0x00136fc0
           1822	       907	0010cb88	7f009283	lh	x5,2032(x1)	  x1:0x00136fc0  x5=0x00000066 PA:0x001377b0 load:0x00000066
           1826	       909	0010cb8c	36028ee3	beq	x5,x0,10d708	  x5:0x00000066  x0:0x00000000
           1828	       910	0010cb90	03c12403	lw	x8,60(x2)	  x2:0x00137790  x8=0x00000007 PA:0x001377cc load:0x00000007
           1830	       911	0010cb94	000018b7	lui	x17,0x1	 x17=0x00001000
           1832	       912	0010cb98	82088a93	addi	x21,x17,-2016	 x17:0x00001000 x21=0x00000820
           1834	       913	0010cb9c	01010b13	addi	x22,x2,16	  x2:0x00137790 x22=0x001377a0
           1836	       914	0010cba0	fffff4b7	lui	x9,0xfffff	  x9=0xfffff000
           1838	       915	0010cba4	00247913	andi	x18,x8,2	  x8:0x00000007 x18=0x00000002
           1840	       916	0010cba8	016a8bb3	add	x23,x21,x22	 x21:0x00000820 x22:0x001377a0 x23=0x00137fc0
           1842	       917	0010cbac	00147993	andi	x19,x8,1	  x8:0x00000007 x19=0x00000001
           1844	       918	0010cbb0	009b8c33	add	x24,x23,x9	 x23:0x00137fc0  x9:0xfffff000 x24=0x00136fc0
           1846	       919	0010cbb4	01203833	sltu	x16,x0,x18	  x0:0x00000000 x18:0x00000002 x16=0x00000001
           1850	       921	0010cbb8	06010c93	addi	x25,x2,96	  x2:0x00137790 x25=0x001377f0
           1852	       922	0010cbbc	01098a33	add	x20,x19,x16	 x19:0x00000001 x16:0x00000001 x20=0x00000002
           1854	       923	0010cbc0	01812423	sw	x24,8(x2)	  x2:0x00137790 x24:0x00136fc0 PA:0x00137798 store:0x00136fc0
           1856	       924	0010cbc4	7f9c2a23	sw	x25,2036(x24)	 x24:0x00136fc0 x25:0x001377f0 PA:0x001377b4 store:0x001377f0
           1858	       925	0010cbc8	04011e23	sh	x0,92(x2)	  x2:0x00137790  x0:0x00000000 PA:0x001377ec store:0x00000000
           1860	       926	0010cbcc	00447d13	andi	x26,x8,4	  x8:0x00000007 x26=0x00000004
           1864	       928	0010cbd0	00098d93	addi	x27,x19,0	 x19:0x00000001 x27=0x00000001
           1866	       929	0010cbd4	001a0e13	addi	x28,x20,1	 x20:0x00000002 x28=0x00000003
           1868	       930	0010cbd8	000d1463	bne	x26,x0,10cbe0	 x26:0x00000004  x0:0x00000000
           1876	       934	0010cbe0	7d000e93	addi	x29,x0,2000	  x0:0x00000000 x29=0x000007d0
           1950	       971	0010cbe4	03ced533	divu	x10,x29,x28	 x29:0x000007d0 x28:0x00000003 x10=0x0000029a
           1952	       972	0010cbe8	ffffff37	lui	x30,0xfffff	 x30=0xfffff000
           1954	       973	0010cbec	02a12a23	sw	x10,52(x2)	  x2:0x00137790 x10:0x0000029a PA:0x001377c4 store:0x0000029a
           1956	       974	0010cbf0	280d9ae3	bne	x27,x0,10d684	 x27:0x00000001  x0:0x00000000
           1960	       976	0010d684	00001fb7	lui	x31,0x1	 x31=0x00001000
           1962	       977	0010d688	820f8793	addi	x15,x31,-2016	 x31:0x00001000 x15=0x00000820
           1964	       978	0010d68c	01010613	addi	x12,x2,16	  x2:0x00137790 x12=0x001377a0
           1966	       979	0010d690	00c785b3	add	x11,x15,x12	 x15:0x00000820 x12:0x001377a0 x11=0x00137fc0
           1968	       980	0010d694	01e586b3	add	x13,x11,x30	 x11:0x00137fc0 x30:0xfffff000 x13=0x00136fc0
           1970	       981	0010d698	06010713	addi	x14,x2,96	  x2:0x00137790 x14=0x001377f0
           1972	       982	0010d69c	00d12423	sw	x13,8(x2)	  x2:0x00137790 x13:0x00136fc0 PA:0x00137798 store:0x00136fc0
           1974	       983	0010d6a0	7ee6ac23	sw	x14,2040(x13)	 x13:0x00136fc0 x14:0x001377f0 PA:0x001377b8 store:0x001377f0
           1976	       984	0010d6a4	d4090a63	beq	x18,x0,10cbf8	 x18:0x00000002  x0:0x00000000
           1986	       989	0010d6a8	01c0006f	jal	x0,10d6c4	  x0=0x00000000
           1994	       993	0010d6c4	02a980b3	mul	x1,x19,x10	 x19:0x00000001 x10:0x0000029a  x1=0x0000029a
           1998	       995	0010d6c8	000014b7	lui	x9,0x1	  x9=0x00001000
           2000	       996	0010d6cc	82048993	addi	x19,x9,-2016	  x9:0x00001000 x19=0x00000820
           2002	       997	0010d6d0	01010813	addi	x16,x2,16	  x2:0x00137790 x16=0x001377a0
           2004	       998	0010d6d4	fffff2b7	lui	x5,0xfffff	  x5=0xfffff000
           2006	       999	0010d6d8	06010313	addi	x6,x2,96	  x2:0x00137790  x6=0x001377f0
           2008	      1000	0010d6dc	010988b3	add	x17,x19,x16	 x19:0x00000820 x16:0x001377a0 x17=0x00137fc0
           2012	      1002	0010d6e0	00588ab3	add	x21,x17,x5	 x17:0x00137fc0  x5:0xfffff000 x21=0x00136fc0
           2014	      1003	0010d6e4	01512423	sw	x21,8(x2)	  x2:0x00137790 x21:0x00136fc0 PA:0x00137798 store:0x00136fc0
           2016	      1004	0010d6e8	001303b3	add	x7,x6,x1	  x6:0x001377f0  x1:0x0000029a  x7=0x00137a8a
           2018	      1005	0010d6ec	7e7aae23	sw	x7,2044(x21)	 x21:0x00136fc0  x7:0x00137a8a PA:0x001377bc store:0x00137a8a
           2020	      1006	0010d6f0	d00d0663	beq	x26,x0,10cbfc	 x26:0x00000004  x0:0x00000000
           2024	      1008	0010d6f4	fb9ff06f	jal	x0,10d6ac	  x0=0x00000000
           2028	      1010	0010d6ac	02aa0a33	mul	x20,x20,x10	 x20:0x00000002 x10:0x0000029a x20=0x00000534
           2030	      1011	0010d6b0	06010b13	addi	x22,x2,96	  x2:0x00137790 x22=0x001377f0
           2032	      1012	0010d6b4	014b0bb3	add	x23,x22,x20	 x22:0x001377f0 x20:0x00000534 x23=0x00137d24
           2036	      1014	0010d6b8	03712823	sw	x23,48(x2)	  x2:0x00137790 x23:0x00137d24 PA:0x001377c0 store:0x00137d24
           2038	      1015	0010d6bc	d40d8263	beq	x27,x0,10cc00	 x27:0x00000001  x0:0x00000000
           2042	      1017	0010d6c0	87dff06f	jal	x0,10cf3c	  x0=0x00000000
           2044	      1018	0010cf3c	00001937	lui	x18,0x1	 x18=0x00001000
           2048	      1020	0010cf40	82090c13	addi	x24,x18,-2016	 x18:0x00001000 x24=0x00000820
           2050	      1021	0010cf44	01010c93	addi	x25,x2,16	  x2:0x00137790 x25=0x001377a0
           2052	      1022	0010cf48	fffff437	lui	x8,0xfffff	  x8=0xfffff000
           2054	      1023	0010cf4c	019c0d33	add	x26,x24,x25	 x24:0x00000820 x25:0x001377a0 x26=0x00137fc0
           2058	      1025	0010cf50	008d0db3	add	x27,x26,x8	 x26:0x00137fc0  x8:0xfffff000 x27=0x00136fc0
           2060	      1026	0010cf54	7ecd9603	lh	x12,2028(x27)	 x27:0x00136fc0 x12=0x00000000 PA:0x001377ac load:0x00000000
           2062	      1027	0010cf58	7f8da583	lw	x11,2040(x27)	 x27:0x00136fc0 x11=0x001377f0 PA:0x001377b8 load:0x001377f0
           2064	      1028	0010cf5c	01b12423	sw	x27,8(x2)	  x2:0x00137790 x27:0x00136fc0 PA:0x00137798 store:0x00136fc0
           2066	      1029	0010cf60	d61f30ef	jal	x1,100cc0	  x1=0x0010cf64
           2070	      1031	00100cc0	01400813	addi	x16,x0,20	  x0:0x00000000 x16=0x00000014
           2144	      1068	00100cc4	030552b3	divu	x5,x10,x16	 x10:0x0000029a x16:0x00000014  x5=0x00000021
           2146	      1069	00100cc8	00060e93	addi	x29,x12,0	 x12:0x00000000 x29=0x00000000
           2148	      1070	00100ccc	ffff8537	lui	x10,0xffff8	 x10=0xffff8000
           2150	      1071	00100cd0	0005a023	sw	x0,0(x11)	 x11:0x001377f0  x0:0x00000000 PA:0x001377f0 store:0x00000000
           2152	      1072	00100cd4	08050713	addi	x14,x10,128	 x10:0xffff8000 x14=0xffff8080
           2154	      1073	00100cd8	01058793	addi	x15,x11,16	 x11:0x001377f0 x15=0x00137800
           2156	      1074	00100cdc	00858693	addi	x13,x11,8	 x11:0x001377f0 x13=0x001377f8
           2158	      1075	00100ce0	ffe28813	addi	x16,x5,-2	  x5:0x00000021 x16=0x0000001f
           2160	      1076	00100ce4	00381613	slli	x12,x16,0x3	 x16:0x0000001f x12=0x000000f8
           2162	      1077	00100ce8	00c58633	add	x12,x11,x12	 x11:0x001377f0 x12:0x000000f8 x12=0x001378e8
           2164	      1078	00100cec	00c5a223	sw	x12,4(x11)	 x11:0x001377f0 x12:0x001378e8 PA:0x001377f4 store:0x001378e8
           2166	      1079	00100cf0	00281893	slli	x17,x16,0x2	 x16:0x0000001f x17=0x0000007c
           2168	      1080	00100cf4	00061123	sh	x0,2(x12)	 x12:0x001378e8  x0:0x00000000 PA:0x001378ea store:0x00000000
           2170	      1081	00100cf8	00e61023	sh	x14,0(x12)	 x12:0x001378e8 x14:0xffff8080 PA:0x001378e8 store:0xffff8080
           2172	      1082	00100cfc	011608b3	add	x17,x12,x17	 x12:0x001378e8 x17:0x0000007c x17=0x00137964
           2174	      1083	00100d00	00460313	addi	x6,x12,4	 x12:0x001378e8  x6=0x001378ec
           2176	      1084	00100d04	52c7fa63	bgeu	x15,x12,101238	 x15:0x00137800 x12:0x001378e8
           2178	      1085	00100d08	00860713	addi	x14,x12,8	 x12:0x001378e8 x14=0x001378f0
           2180	      1086	00100d0c	53177663	bgeu	x14,x17,101238	 x14:0x001378f0 x17:0x00137964
           2184	      1088	00100d10	0005a423	sw	x0,8(x11)	 x11:0x001377f0  x0:0x00000000 PA:0x001377f8 store:0x00000000
           2186	      1089	00100d14	00d5a023	sw	x13,0(x11)	 x11:0x001377f0 x13:0x001377f8 PA:0x001377f0 store:0x001377f8
           2188	      1090	00100d18	0065a623	sw	x6,12(x11)	 x11:0x001377f0  x6:0x001378ec PA:0x001377fc store:0x001378ec
           2190	      1091	00100d1c	fff54393	xori	x7,x10,-1	 x10:0xffff8000  x7=0x00007fff
           2192	      1092	00100d20	fff00e13	addi	x28,x0,-1	  x0:0x00000000 x28=0xffffffff
           2194	      1093	00100d24	01c61223	sh	x28,4(x12)	 x12:0x001378e8 x28:0xffffffff PA:0x001378ec store:0xffffffff
           2198	      1095	00100d28	00761323	sh	x7,6(x12)	 x12:0x001378e8  x7:0x00007fff PA:0x001378ee store:0x00007fff
           2200	      1096	00100d2c	28080663	beq	x16,x0,100fb8	 x16:0x0000001f  x0:0x00000000
           2202	      1097	00100d30	010e9f13	slli	x30,x29,0x10	 x29:0x00000000 x30=0x00000000
           2204	      1098	00100d34	ffff8fb7	lui	x31,0xffff8	 x31=0xffff8000
           2206	      1099	00100d38	00387293	andi	x5,x16,3	 x16:0x0000001f  x5=0x00000003
           2208	      1100	00100d3c	010f5f13	srli	x30,x30,0x10	 x30:0x00000000 x30=0x00000000
           2212	      1102	00100d40	00000513	addi	x10,x0,0	  x0:0x00000000 x10=0x00000000
           2214	      1103	00100d44	ffffc313	xori	x6,x31,-1	 x31:0xffff8000  x6=0x00007fff
           2216	      1104	00100d48	10028663	beq	x5,x0,100e54	  x5:0x00000003  x0:0x00000000
           2218	      1105	00100d4c	00100393	addi	x7,x0,1	  x0:0x00000000  x7=0x00000001
           2220	      1106	00100d50	0a728463	beq	x5,x7,100df8	  x5:0x00000003  x7:0x00000001
           2222	      1107	00100d54	00200e13	addi	x28,x0,2	  x0:0x00000000 x28=0x00000002
           2226	      1109	00100d58	05c28463	beq	x5,x28,100da0	  x5:0x00000003 x28:0x00000002
           2228	      1110	00100d5c	00878293	addi	x5,x15,8	 x15:0x00137800  x5=0x00137808
           2230	      1111	00100d60	24c2fc63	bgeu	x5,x12,100fb8	  x5:0x00137808 x12:0x001378e8
           2232	      1112	00100d64	00470f93	addi	x31,x14,4	 x14:0x001378f0 x31=0x001378f4
           2234	      1113	00100d68	031ffa63	bgeu	x31,x17,100d9c	 x31:0x001378f4 x17:0x00137964
           2236	      1114	00100d6c	003f1513	slli	x10,x30,0x3	 x30:0x00000000 x10=0x00000000
           2240	      1116	00100d70	00d7a023	sw	x13,0(x15)	 x15:0x00137800 x13:0x001377f8 PA:0x00137800 store:0x001377f8
           2242	      1117	00100d74	07857693	andi	x13,x10,120	 x10:0x00000000 x13=0x00000000
           2244	      1118	00100d78	00f5a023	sw	x15,0(x11)	 x11:0x001377f0 x15:0x00137800 PA:0x001377f0 store:0x00137800
           2246	      1119	00100d7c	00869393	slli	x7,x13,0x8	 x13:0x00000000  x7=0x00000000
           2248	      1120	00100d80	00e7a223	sw	x14,4(x15)	 x15:0x00137800 x14:0x001378f0 PA:0x00137804 store:0x001378f0
           2250	      1121	00100d84	00d3ee33	or	x28,x7,x13	  x7:0x00000000 x13:0x00000000 x28=0x00000000
           2254	      1123	00100d88	01c71023	sh	x28,0(x14)	 x14:0x001378f0 x28:0x00000000 PA:0x001378f0 store:0x00000000
           2256	      1124	00100d8c	00671123	sh	x6,2(x14)	 x14:0x001378f0  x6:0x00007fff PA:0x001378f2 store:0x00007fff
           2258	      1125	00100d90	00078693	addi	x13,x15,0	 x15:0x00137800 x13=0x00137800
           2260	      1126	00100d94	000f8713	addi	x14,x31,0	 x31:0x001378f4 x14=0x001378f4
           2262	      1127	00100d98	00028793	addi	x15,x5,0	  x5:0x00137808 x15=0x00137808
           2264	      1128	00100d9c	00100513	addi	x10,x0,1	  x0:0x00000000 x10=0x00000001
           2268	      1130	00100da0	00878293	addi	x5,x15,8	 x15:0x00137808  x5=0x00137810
           2270	      1131	00100da4	20c2fa63	bgeu	x5,x12,100fb8	  x5:0x00137810 x12:0x001378e8
           2272	      1132	00100da8	00470393	addi	x7,x14,4	 x14:0x001378f4  x7=0x001378f8
           2274	      1133	00100dac	0513f463	bgeu	x7,x17,100df4	  x7:0x001378f8 x17:0x00137964
           2276	      1134	00100db0	01051f93	slli	x31,x10,0x10	 x10:0x00000001 x31=0x00010000
           2278	      1135	00100db4	010fdf93	srli	x31,x31,0x10	 x31:0x00010000 x31=0x00000001
           2282	      1137	00100db8	01efce33	xor	x28,x31,x30	 x31:0x00000001 x30:0x00000000 x28=0x00000001
           2284	      1138	00100dbc	003e1e13	slli	x28,x28,0x3	 x28:0x00000001 x28=0x00000008
           2286	      1139	00100dc0	078e7e13	andi	x28,x28,120	 x28:0x00000008 x28=0x00000008
           2288	      1140	00100dc4	007fff93	andi	x31,x31,7	 x31:0x00000001 x31=0x00000001
           2290	      1141	00100dc8	00d7a023	sw	x13,0(x15)	 x15:0x00137808 x13:0x00137800 PA:0x00137808 store:0x00137800
           2292	      1142	00100dcc	01fe66b3	or	x13,x28,x31	 x28:0x00000008 x31:0x00000001 x13=0x00000009
           2296	      1144	00100dd0	00f5a023	sw	x15,0(x11)	 x11:0x001377f0 x15:0x00137808 PA:0x001377f0 store:0x00137808
           2298	      1145	00100dd4	00869e13	slli	x28,x13,0x8	 x13:0x00000009 x28=0x00000900
           2300	      1146	00100dd8	00e7a223	sw	x14,4(x15)	 x15:0x00137808 x14:0x001378f4 PA:0x0013780c store:0x001378f4
           2302	      1147	00100ddc	00de6fb3	or	x31,x28,x13	 x28:0x00000900 x13:0x00000009 x31=0x00000909
           2304	      1148	00100de0	01f71023	sh	x31,0(x14)	 x14:0x001378f4 x31:0x00000909 PA:0x001378f4 store:0x00000909
           2306	      1149	00100de4	00671123	sh	x6,2(x14)	 x14:0x001378f4  x6:0x00007fff PA:0x001378f6 store:0x00007fff
           2310	      1151	00100de8	00078693	addi	x13,x15,0	 x15:0x00137808 x13=0x00137808
           2312	      1152	00100dec	00038713	addi	x14,x7,0	  x7:0x001378f8 x14=0x001378f8
           2314	      1153	00100df0	00028793	addi	x15,x5,0	  x5:0x00137810 x15=0x00137810
           2316	      1154	00100df4	00150513	addi	x10,x10,1	 x10:0x00000001 x10=0x00000002
           2318	      1155	00100df8	00878293	addi	x5,x15,8	 x15:0x00137810  x5=0x00137818
           2320	      1156	00100dfc	1ac2fe63	bgeu	x5,x12,100fb8	  x5:0x00137818 x12:0x001378e8
           2324	      1158	00100e00	00470393	addi	x7,x14,4	 x14:0x001378f8  x7=0x001378fc
           2326	      1159	00100e04	0513f463	bgeu	x7,x17,100e4c	  x7:0x001378fc x17:0x00137964
           2328	      1160	00100e08	01051e13	slli	x28,x10,0x10	 x10:0x00000002 x28=0x00020000
           2330	      1161	00100e0c	010e5f93	srli	x31,x28,0x10	 x28:0x00020000 x31=0x00000002
           2332	      1162	00100e10	01efce33	xor	x28,x31,x30	 x31:0x00000002 x30:0x00000000 x28=0x00000002
           2334	      1163	00100e14	003e1e13	slli	x28,x28,0x3	 x28:0x00000002 x28=0x00000010
           2338	      1165	00100e18	078e7e13	andi	x28,x28,120	 x28:0x00000010 x28=0x00000010
           2340	      1166	00100e1c	007fff93	andi	x31,x31,7	 x31:0x00000002 x31=0x00000002
           2342	      1167	00100e20	00d7a023	sw	x13,0(x15)	 x15:0x00137810 x13:0x00137808 PA:0x00137810 store:0x00137808
           2344	      1168	00100e24	01fe66b3	or	x13,x28,x31	 x28:0x00000010 x31:0x00000002 x13=0x00000012
           2346	      1169	00100e28	00f5a023	sw	x15,0(x11)	 x11:0x001377f0 x15:0x00137810 PA:0x001377f0 store:0x00137810
           2348	      1170	00100e2c	00869e13	slli	x28,x13,0x8	 x13:0x00000012 x28=0x00001200
           2352	      1172	00100e30	00e7a223	sw	x14,4(x15)	 x15:0x00137810 x14:0x001378f8 PA:0x00137814 store:0x001378f8
           2354	      1173	00100e34	00de6fb3	or	x31,x28,x13	 x28:0x00001200 x13:0x00000012 x31=0x00001212
           2356	      1174	00100e38	01f71023	sh	x31,0(x14)	 x14:0x001378f8 x31:0x00001212 PA:0x001378f8 store:0x00001212
           2358	      1175	00100e3c	00671123	sh	x6,2(x14)	 x14:0x001378f8  x6:0x00007fff PA:0x001378fa store:0x00007fff
           2360	      1176	00100e40	00078693	addi	x13,x15,0	 x15:0x00137810 x13=0x00137810
           2362	      1177	00100e44	00038713	addi	x14,x7,0	  x7:0x001378fc x14=0x001378fc
           2366	      1179	00100e48	00028793	addi	x15,x5,0	  x5:0x00137818 x15=0x00137818
           2368	      1180	00100e4c	00150513	addi	x10,x10,1	 x10:0x00000002 x10=0x00000003
           2370	      1181	00100e50	16a80463	beq	x16,x10,100fb8	 x16:0x0000001f x10:0x00000003
           2372	      1182	00100e54	00878293	addi	x5,x15,8	 x15:0x00137818  x5=0x00137820
           2374	      1183	00100e58	16c2f063	bgeu	x5,x12,100fb8	  x5:0x00137820 x12:0x001378e8
           2376	      1184	00100e5c	00470393	addi	x7,x14,4	 x14:0x001378fc  x7=0x00137900
           2380	      1186	00100e60	0513f463	bgeu	x7,x17,100ea8	  x7:0x00137900 x17:0x00137964
           2382	      1187	00100e64	01051e13	slli	x28,x10,0x10	 x10:0x00000003 x28=0x00030000
           2384	      1188	00100e68	010e5f93	srli	x31,x28,0x10	 x28:0x00030000 x31=0x00000003
           2386	      1189	00100e6c	01efce33	xor	x28,x31,x30	 x31:0x00000003 x30:0x00000000 x28=0x00000003
           2388	      1190	00100e70	003e1e13	slli	x28,x28,0x3	 x28:0x00000003 x28=0x00000018
           2390	      1191	00100e74	078e7e13	andi	x28,x28,120	 x28:0x00000018 x28=0x00000018
           2394	      1193	00100e78	007fff93	andi	x31,x31,7	 x31:0x00000003 x31=0x00000003
           2396	      1194	00100e7c	00d7a023	sw	x13,0(x15)	 x15:0x00137818 x13:0x00137810 PA:0x00137818 store:0x00137810
           2398	      1195	00100e80	01fe66b3	or	x13,x28,x31	 x28:0x00000018 x31:0x00000003 x13=0x0000001b
           2400	      1196	00100e84	00f5a023	sw	x15,0(x11)	 x11:0x001377f0 x15:0x00137818 PA:0x001377f0 store:0x00137818
           2402	      1197	00100e88	00869e13	slli	x28,x13,0x8	 x13:0x0000001b x28=0x00001b00
           2404	      1198	00100e8c	00e7a223	sw	x14,4(x15)	 x15:0x00137818 x14:0x001378fc PA:0x0013781c store:0x001378fc
           2408	      1200	00100e90	00de6fb3	or	x31,x28,x13	 x28:0x00001b00 x13:0x0000001b x31=0x00001b1b
           2410	      1201	00100e94	01f71023	sh	x31,0(x14)	 x14:0x001378fc x31:0x00001b1b PA:0x001378fc store:0x00001b1b
           2412	      1202	00100e98	00671123	sh	x6,2(x14)	 x14:0x001378fc  x6:0x00007fff PA:0x001378fe store:0x00007fff
           2414	      1203	00100e9c	00078693	addi	x13,x15,0	 x15:0x00137818 x13=0x00137818
           2416	      1204	00100ea0	00038713	addi	x14,x7,0	  x7:0x00137900 x14=0x00137900
           2418	      1205	00100ea4	00028793	addi	x15,x5,0	  x5:0x00137820 x15=0x00137820
           2422	      1207	00100ea8	00878293	addi	x5,x15,8	 x15:0x00137820  x5=0x00137828
           2424	      1208	00100eac	00150513	addi	x10,x10,1	 x10:0x00000003 x10=0x00000004
           2426	      1209	00100eb0	10c2f463	bgeu	x5,x12,100fb8	  x5:0x00137828 x12:0x001378e8
           2428	      1210	00100eb4	00470393	addi	x7,x14,4	 x14:0x00137900  x7=0x00137904
           2430	      1211	00100eb8	0513f463	bgeu	x7,x17,100f00	  x7:0x00137904 x17:0x00137964
           2432	      1212	00100ebc	01051e13	slli	x28,x10,0x10	 x10:0x00000004 x28=0x00040000
           2436	      1214	00100ec0	010e5f93	srli	x31,x28,0x10	 x28:0x00040000 x31=0x00000004
           2438	      1215	00100ec4	01efce33	xor	x28,x31,x30	 x31:0x00000004 x30:0x00000000 x28=0x00000004
           2440	      1216	00100ec8	003e1e13	slli	x28,x28,0x3	 x28:0x00000004 x28=0x00000020
           2442	      1217	00100ecc	078e7e13	andi	x28,x28,120	 x28:0x00000020 x28=0x00000020
           2444	      1218	00100ed0	007fff93	andi	x31,x31,7	 x31:0x00000004 x31=0x00000004
           2446	      1219	00100ed4	00d7a023	sw	x13,0(x15)	 x15:0x00137820 x13:0x00137818 PA:0x00137820 store:0x00137818
           2450	      1221	00100ed8	01fe66b3	or	x13,x28,x31	 x28:0x00000020 x31:0x00000004 x13=0x00000024
           2452	      1222	00100edc	00f5a023	sw	x15,0(x11)	 x11:0x001377f0 x15:0x00137820 PA:0x001377f0 store:0x00137820
           2454	      1223	00100ee0	00869e13	slli	x28,x13,0x8	 x13:0x00000024 x28=0x00002400
           2456	      1224	00100ee4	00e7a223	sw	x14,4(x15)	 x15:0x00137820 x14:0x00137900 PA:0x00137824 store:0x00137900
           2458	      1225	00100ee8	00de6fb3	or	x31,x28,x13	 x28:0x00002400 x13:0x00000024 x31=0x00002424
           2460	      1226	00100eec	01f71023	sh	x31,0(x14)	 x14:0x00137900 x31:0x00002424 PA:0x00137900 store:0x00002424
           2464	      1228	00100ef0	00671123	sh	x6,2(x14)	 x14:0x00137900  x6:0x00007fff PA:0x00137902 store:0x00007fff
           2466	      1229	00100ef4	00078693	addi	x13,x15,0	 x15:0x00137820 x13=0x00137820
           2468	      1230	00100ef8	00038713	addi	x14,x7,0	  x7:0x00137904 x14=0x00137904
           2470	      1231	00100efc	00028793	addi	x15,x5,0	  x5:0x00137828 x15=0x00137828
           2472	      1232	00100f00	00878293	addi	x5,x15,8	 x15:0x00137828  x5=0x00137830
           2474	      1233	00100f04	00150e13	addi	x28,x10,1	 x10:0x00000004 x28=0x00000005
           2478	      1235	00100f08	0ac2f863	bgeu	x5,x12,100fb8	  x5:0x00137830 x12:0x001378e8
           2480	      1236	00100f0c	00470393	addi	x7,x14,4	 x14:0x00137904  x7=0x00137908
           2482	      1237	00100f10	0513f463	bgeu	x7,x17,100f58	  x7:0x00137908 x17:0x00137964
           2484	      1238	00100f14	010e1f93	slli	x31,x28,0x10	 x28:0x00000005 x31=0x00050000
           2486	      1239	00100f18	010fdf93	srli	x31,x31,0x10	 x31:0x00050000 x31=0x00000005
           2488	      1240	00100f1c	01efce33	xor	x28,x31,x30	 x31:0x00000005 x30:0x00000000 x28=0x00000005
           2492	      1242	00100f20	003e1e13	slli	x28,x28,0x3	 x28:0x00000005 x28=0x00000028
           2494	      1243	00100f24	078e7e13	andi	x28,x28,120	 x28:0x00000028 x28=0x00000028
           2496	      1244	00100f28	007fff93	andi	x31,x31,7	 x31:0x00000005 x31=0x00000005
           2498	      1245	00100f2c	00d7a023	sw	x13,0(x15)	 x15:0x00137828 x13:0x00137820 PA:0x00137828 store:0x00137820
           2500	      1246	00100f30	01fe66b3	or	x13,x28,x31	 x28:0x00000028 x31:0x00000005 x13=0x0000002d
           2502	      1247	00100f34	00f5a023	sw	x15,0(x11)	 x11:0x001377f0 x15:0x00137828 PA:0x001377f0 store:0x00137828
           2506	      1249	00100f38	00869e13	slli	x28,x13,0x8	 x13:0x0000002d x28=0x00002d00
           2508	      1250	00100f3c	00e7a223	sw	x14,4(x15)	 x15:0x00137828 x14:0x00137904 PA:0x0013782c store:0x00137904
           2510	      1251	00100f40	00de6fb3	or	x31,x28,x13	 x28:0x00002d00 x13:0x0000002d x31=0x00002d2d
           2512	      1252	00100f44	01f71023	sh	x31,0(x14)	 x14:0x00137904 x31:0x00002d2d PA:0x00137904 store:0x00002d2d
           2514	      1253	00100f48	00671123	sh	x6,2(x14)	 x14:0x00137904  x6:0x00007fff PA:0x00137906 store:0x00007fff
           2516	      1254	00100f4c	00078693	addi	x13,x15,0	 x15:0x00137828 x13=0x00137828
           2520	      1256	00100f50	00038713	addi	x14,x7,0	  x7:0x00137908 x14=0x00137908
           2522	      1257	00100f54	00028793	addi	x15,x5,0	  x5:0x00137830 x15=0x00137830
           2524	      1258	00100f58	00878293	addi	x5,x15,8	 x15:0x00137830  x5=0x00137838
           2526	      1259	00100f5c	00250e13	addi	x28,x10,2	 x10:0x00000004 x28=0x00000006
           2528	      1260	00100f60	04c2fc63	bgeu	x5,x12,100fb8	  x5:0x00137838 x12:0x001378e8
           2530	      1261	00100f64	00470393	addi	x7,x14,4	 x14:0x00137908  x7=0x0013790c
           2534	      1263	00100f68	0513f463	bgeu	x7,x17,100fb0	  x7:0x0013790c x17:0x00137964
           2536	      1264	00100f6c	010e1f93	slli	x31,x28,0x10	 x28:0x00000006 x31=0x00060000
           2538	      1265	00100f70	010fdf93	srli	x31,x31,0x10	 x31:0x00060000 x31=0x00000006
           2540	      1266	00100f74	01efce33	xor	x28,x31,x30	 x31:0x00000006 x30:0x00000000 x28=0x00000006
           2542	      1267	00100f78	003e1e13	slli	x28,x28,0x3	 x28:0x00000006 x28=0x00000030
           2544	      1268	00100f7c	078e7e13	andi	x28,x28,120	 x28:0x00000030 x28=0x00000030
           2548	      1270	00100f80	007fff93	andi	x31,x31,7	 x31:0x00000006 x31=0x00000006
           2550	      1271	00100f84	00d7a023	sw	x13,0(x15)	 x15:0x00137830 x13:0x00137828 PA:0x00137830 store:0x00137828
           2552	      1272	00100f88	01fe66b3	or	x13,x28,x31	 x28:0x00000030 x31:0x00000006 x13=0x00000036
           2554	      1273	00100f8c	00f5a023	sw	x15,0(x11)	 x11:0x001377f0 x15:0x00137830 PA:0x001377f0 store:0x00137830
           2556	      1274	00100f90	00869e13	slli	x28,x13,0x8	 x13:0x00000036 x28=0x00003600
           2558	      1275	00100f94	00e7a223	sw	x14,4(x15)	 x15:0x00137830 x14:0x00137908 PA:0x00137834 store:0x00137908
           2562	      1277	00100f98	00de6fb3	or	x31,x28,x13	 x28:0x00003600 x13:0x00000036 x31=0x00003636
           2564	      1278	00100f9c	01f71023	sh	x31,0(x14)	 x14:0x00137908 x31:0x00003636 PA:0x00137908 store:0x00003636
           2566	      1279	00100fa0	00671123	sh	x6,2(x14)	 x14:0x00137908  x6:0x00007fff PA:0x0013790a store:0x00007fff
           2568	      1280	00100fa4	00078693	addi	x13,x15,0	 x15:0x00137830 x13=0x00137830
           2570	      1281	00100fa8	00038713	addi	x14,x7,0	  x7:0x0013790c x14=0x0013790c
           2572	      1282	00100fac	00028793	addi	x15,x5,0	  x5:0x00137838 x15=0x00137838
           2576	      1284	00100fb0	00350513	addi	x10,x10,3	 x10:0x00000004 x10=0x00000007
           2578	      1285	00100fb4	eaa810e3	bne	x16,x10,100e54	 x16:0x0000001f x10:0x00000007
           2580	      1286	00100e54	00878293	addi	x5,x15,8	 x15:0x00137838  x5=0x00137840
           2582	      1287	00100e58	16c2f063	bgeu	x5,x12,100fb8	  x5:0x00137840 x12:0x001378e8
           2584	      1288	00100e5c	00470393	addi	x7,x14,4	 x14:0x0013790c  x7=0x00137910
           2586	      1289	00100e60	0513f463	bgeu	x7,x17,100ea8	  x7:0x00137910 x17:0x00137964
           2588	      1290	00100e64	01051e13	slli	x28,x10,0x10	 x10:0x00000007 x28=0x00070000
           2590	      1291	00100e68	010e5f93	srli	x31,x28,0x10	 x28:0x00070000 x31=0x00000007
           2592	      1292	00100e6c	01efce33	xor	x28,x31,x30	 x31:0x00000007 x30:0x00000000 x28=0x00000007
           2594	      1293	00100e70	003e1e13	slli	x28,x28,0x3	 x28:0x00000007 x28=0x00000038
           2596	      1294	00100e74	078e7e13	andi	x28,x28,120	 x28:0x00000038 x28=0x00000038
           2598	      1295	00100e78	007fff93	andi	x31,x31,7	 x31:0x00000007 x31=0x00000007
           2600	      1296	00100e7c	00d7a023	sw	x13,0(x15)	 x15:0x00137838 x13:0x00137830 PA:0x00137838 store:0x00137830
           2602	      1297	00100e80	01fe66b3	or	x13,x28,x31	 x28:0x00000038 x31:0x00000007 x13=0x0000003f
           2604	      1298	00100e84	00f5a023	sw	x15,0(x11)	 x11:0x001377f0 x15:0x00137838 PA:0x001377f0 store:0x00137838
           2606	      1299	00100e88	00869e13	slli	x28,x13,0x8	 x13:0x0000003f x28=0x00003f00
           2608	      1300	00100e8c	00e7a223	sw	x14,4(x15)	 x15:0x00137838 x14:0x0013790c PA:0x0013783c store:0x0013790c
           2610	      1301	00100e90	00de6fb3	or	x31,x28,x13	 x28:0x00003f00 x13:0x0000003f x31=0x00003f3f
           2612	      1302	00100e94	01f71023	sh	x31,0(x14)	 x14:0x0013790c x31:0x00003f3f PA:0x0013790c store:0x00003f3f
           2614	      1303	00100e98	00671123	sh	x6,2(x14)	 x14:0x0013790c  x6:0x00007fff PA:0x0013790e store:0x00007fff
           2616	      1304	00100e9c	00078693	addi	x13,x15,0	 x15:0x00137838 x13=0x00137838
           2618	      1305	00100ea0	00038713	addi	x14,x7,0	  x7:0x00137910 x14=0x00137910
           2620	      1306	00100ea4	00028793	addi	x15,x5,0	  x5:0x00137840 x15=0x00137840
           2622	      1307	00100ea8	00878293	addi	x5,x15,8	 x15:0x00137840  x5=0x00137848
           2624	      1308	00100eac	00150513	addi	x10,x10,1	 x10:0x00000007 x10=0x00000008
           2626	      1309	00100eb0	10c2f463	bgeu	x5,x12,100fb8	  x5:0x00137848 x12:0x001378e8
           2628	      1310	00100eb4	00470393	addi	x7,x14,4	 x14:0x00137910  x7=0x00137914
           2630	      1311	00100eb8	0513f463	bgeu	x7,x17,100f00	  x7:0x00137914 x17:0x00137964
           2632	      1312	00100ebc	01051e13	slli	x28,x10,0x10	 x10:0x00000008 x28=0x00080000
           2634	      1313	00100ec0	010e5f93	srli	x31,x28,0x10	 x28:0x00080000 x31=0x00000008
           2636	      1314	00100ec4	01efce33	xor	x28,x31,x30	 x31:0x00000008 x30:0x00000000 x28=0x00000008
           2638	      1315	00100ec8	003e1e13	slli	x28,x28,0x3	 x28:0x00000008 x28=0x00000040
           2640	      1316	00100ecc	078e7e13	andi	x28,x28,120	 x28:0x00000040 x28=0x00000040
           2642	      1317	00100ed0	007fff93	andi	x31,x31,7	 x31:0x00000008 x31=0x00000000
           2644	      1318	00100ed4	00d7a023	sw	x13,0(x15)	 x15:0x00137840 x13:0x00137838 PA:0x00137840 store:0x00137838
           2646	      1319	00100ed8	01fe66b3	or	x13,x28,x31	 x28:0x00000040 x31:0x00000000 x13=0x00000040
           2648	      1320	00100edc	00f5a023	sw	x15,0(x11)	 x11:0x001377f0 x15:0x00137840 PA:0x001377f0 store:0x00137840
           2650	      1321	00100ee0	00869e13	slli	x28,x13,0x8	 x13:0x00000040 x28=0x00004000
           2652	      1322	00100ee4	00e7a223	sw	x14,4(x15)	 x15:0x00137840 x14:0x00137910 PA:0x00137844 store:0x00137910
           2654	      1323	00100ee8	00de6fb3	or	x31,x28,x13	 x28:0x00004000 x13:0x00000040 x31=0x00004040
           2656	      1324	00100eec	01f71023	sh	x31,0(x14)	 x14:0x00137910 x31:0x00004040 PA:0x00137910 store:0x00004040
           2658	      1325	00100ef0	00671123	sh	x6,2(x14)	 x14:0x00137910  x6:0x00007fff PA:0x00137912 store:0x00007fff
           2660	      1326	00100ef4	00078693	addi	x13,x15,0	 x15:0x00137840 x13=0x00137840
           2662	      1327	00100ef8	00038713	addi	x14,x7,0	  x7:0x00137914 x14=0x00137914
           2664	      1328	00100efc	00028793	addi	x15,x5,0	  x5:0x00137848 x15=0x00137848
           2666	      1329	00100f00	00878293	addi	x5,x15,8	 x15:0x00137848  x5=0x00137850
           2668	      1330	00100f04	00150e13	addi	x28,x10,1	 x10:0x00000008 x28=0x00000009
           2670	      1331	00100f08	0ac2f863	bgeu	x5,x12,100fb8	  x5:0x00137850 x12:0x001378e8
           2672	      1332	00100f0c	00470393	addi	x7,x14,4	 x14:0x00137914  x7=0x00137918
           2674	      1333	00100f10	0513f463	bgeu	x7,x17,100f58	  x7:0x00137918 x17:0x00137964
           2676	      1334	00100f14	010e1f93	slli	x31,x28,0x10	 x28:0x00000009 x31=0x00090000
           2678	      1335	00100f18	010fdf93	srli	x31,x31,0x10	 x31:0x00090000 x31=0x00000009
           2680	      1336	00100f1c	01efce33	xor	x28,x31,x30	 x31:0x00000009 x30:0x00000000 x28=0x00000009
           2682	      1337	00100f20	003e1e13	slli	x28,x28,0x3	 x28:0x00000009 x28=0x00000048
           2684	      1338	00100f24	078e7e13	andi	x28,x28,120	 x28:0x00000048 x28=0x00000048
           2686	      1339	00100f28	007fff93	andi	x31,x31,7	 x31:0x00000009 x31=0x00000001
           2688	      1340	00100f2c	00d7a023	sw	x13,0(x15)	 x15:0x00137848 x13:0x00137840 PA:0x00137848 store:0x00137840
           2690	      1341	00100f30	01fe66b3	or	x13,x28,x31	 x28:0x00000048 x31:0x00000001 x13=0x00000049
           2692	      1342	00100f34	00f5a023	sw	x15,0(x11)	 x11:0x001377f0 x15:0x00137848 PA:0x001377f0 store:0x00137848
           2694	      1343	00100f38	00869e13	slli	x28,x13,0x8	 x13:0x00000049 x28=0x00004900
           2696	      1344	00100f3c	00e7a223	sw	x14,4(x15)	 x15:0x00137848 x14:0x00137914 PA:0x0013784c store:0x00137914
           2698	      1345	00100f40	00de6fb3	or	x31,x28,x13	 x28:0x00004900 x13:0x00000049 x31=0x00004949
           2700	      1346	00100f44	01f71023	sh	x31,0(x14)	 x14:0x00137914 x31:0x00004949 PA:0x00137914 store:0x00004949
           2702	      1347	00100f48	00671123	sh	x6,2(x14)	 x14:0x00137914  x6:0x00007fff PA:0x00137916 store:0x00007fff
           2704	      1348	00100f4c	00078693	addi	x13,x15,0	 x15:0x00137848 x13=0x00137848
           2706	      1349	00100f50	00038713	addi	x14,x7,0	  x7:0x00137918 x14=0x00137918
           2708	      1350	00100f54	00028793	addi	x15,x5,0	  x5:0x00137850 x15=0x00137850
           2710	      1351	00100f58	00878293	addi	x5,x15,8	 x15:0x00137850  x5=0x00137858
           2712	      1352	00100f5c	00250e13	addi	x28,x10,2	 x10:0x00000008 x28=0x0000000a
           2714	      1353	00100f60	04c2fc63	bgeu	x5,x12,100fb8	  x5:0x00137858 x12:0x001378e8
           2716	      1354	00100f64	00470393	addi	x7,x14,4	 x14:0x00137918  x7=0x0013791c
           2718	      1355	00100f68	0513f463	bgeu	x7,x17,100fb0	  x7:0x0013791c x17:0x00137964
           2720	      1356	00100f6c	010e1f93	slli	x31,x28,0x10	 x28:0x0000000a x31=0x000a0000
           2722	      1357	00100f70	010fdf93	srli	x31,x31,0x10	 x31:0x000a0000 x31=0x0000000a
           2724	      1358	00100f74	01efce33	xor	x28,x31,x30	 x31:0x0000000a x30:0x00000000 x28=0x0000000a
           2726	      1359	00100f78	003e1e13	slli	x28,x28,0x3	 x28:0x0000000a x28=0x00000050
           2728	      1360	00100f7c	078e7e13	andi	x28,x28,120	 x28:0x00000050 x28=0x00000050
           2730	      1361	00100f80	007fff93	andi	x31,x31,7	 x31:0x0000000a x31=0x00000002
           2732	      1362	00100f84	00d7a023	sw	x13,0(x15)	 x15:0x00137850 x13:0x00137848 PA:0x00137850 store:0x00137848
           2734	      1363	00100f88	01fe66b3	or	x13,x28,x31	 x28:0x00000050 x31:0x00000002 x13=0x00000052
           2736	      1364	00100f8c	00f5a023	sw	x15,0(x11)	 x11:0x001377f0 x15:0x00137850 PA:0x001377f0 store:0x00137850
           2738	      1365	00100f90	00869e13	slli	x28,x13,0x8	 x13:0x00000052 x28=0x00005200
           2740	      1366	00100f94	00e7a223	sw	x14,4(x15)	 x15:0x00137850 x14:0x00137918 PA:0x00137854 store:0x00137918
           2742	      1367	00100f98	00de6fb3	or	x31,x28,x13	 x28:0x00005200 x13:0x00000052 x31=0x00005252
           2744	      1368	00100f9c	01f71023	sh	x31,0(x14)	 x14:0x00137918 x31:0x00005252 PA:0x00137918 store:0x00005252
           2746	      1369	00100fa0	00671123	sh	x6,2(x14)	 x14:0x00137918  x6:0x00007fff PA:0x0013791a store:0x00007fff
           2748	      1370	00100fa4	00078693	addi	x13,x15,0	 x15:0x00137850 x13=0x00137850
           2750	      1371	00100fa8	00038713	addi	x14,x7,0	  x7:0x0013791c x14=0x0013791c
           2752	      1372	00100fac	00028793	addi	x15,x5,0	  x5:0x00137858 x15=0x00137858
           2754	      1373	00100fb0	00350513	addi	x10,x10,3	 x10:0x00000008 x10=0x0000000b
           2756	      1374	00100fb4	eaa810e3	bne	x16,x10,100e54	 x16:0x0000001f x10:0x0000000b
           2758	      1375	00100e54	00878293	addi	x5,x15,8	 x15:0x00137858  x5=0x00137860
           2760	      1376	00100e58	16c2f063	bgeu	x5,x12,100fb8	  x5:0x00137860 x12:0x001378e8
           2762	      1377	00100e5c	00470393	addi	x7,x14,4	 x14:0x0013791c  x7=0x00137920
           2764	      1378	00100e60	0513f463	bgeu	x7,x17,100ea8	  x7:0x00137920 x17:0x00137964
           2766	      1379	00100e64	01051e13	slli	x28,x10,0x10	 x10:0x0000000b x28=0x000b0000
           2768	      1380	00100e68	010e5f93	srli	x31,x28,0x10	 x28:0x000b0000 x31=0x0000000b
           2770	      1381	00100e6c	01efce33	xor	x28,x31,x30	 x31:0x0000000b x30:0x00000000 x28=0x0000000b
           2772	      1382	00100e70	003e1e13	slli	x28,x28,0x3	 x28:0x0000000b x28=0x00000058
           2774	      1383	00100e74	078e7e13	andi	x28,x28,120	 x28:0x00000058 x28=0x00000058
           2776	      1384	00100e78	007fff93	andi	x31,x31,7	 x31:0x0000000b x31=0x00000003
           2778	      1385	00100e7c	00d7a023	sw	x13,0(x15)	 x15:0x00137858 x13:0x00137850 PA:0x00137858 store:0x00137850
           2780	      1386	00100e80	01fe66b3	or	x13,x28,x31	 x28:0x00000058 x31:0x00000003 x13=0x0000005b
           2782	      1387	00100e84	00f5a023	sw	x15,0(x11)	 x11:0x001377f0 x15:0x00137858 PA:0x001377f0 store:0x00137858
           2784	      1388	00100e88	00869e13	slli	x28,x13,0x8	 x13:0x0000005b x28=0x00005b00
           2786	      1389	00100e8c	00e7a223	sw	x14,4(x15)	 x15:0x00137858 x14:0x0013791c PA:0x0013785c store:0x0013791c
           2788	      1390	00100e90	00de6fb3	or	x31,x28,x13	 x28:0x00005b00 x13:0x0000005b x31=0x00005b5b
           2790	      1391	00100e94	01f71023	sh	x31,0(x14)	 x14:0x0013791c x31:0x00005b5b PA:0x0013791c store:0x00005b5b
           2792	      1392	00100e98	00671123	sh	x6,2(x14)	 x14:0x0013791c  x6:0x00007fff PA:0x0013791e store:0x00007fff
           2794	      1393	00100e9c	00078693	addi	x13,x15,0	 x15:0x00137858 x13=0x00137858
           2796	      1394	00100ea0	00038713	addi	x14,x7,0	  x7:0x00137920 x14=0x00137920
           2798	      1395	00100ea4	00028793	addi	x15,x5,0	  x5:0x00137860 x15=0x00137860
           2800	      1396	00100ea8	00878293	addi	x5,x15,8	 x15:0x00137860  x5=0x00137868
           2802	      1397	00100eac	00150513	addi	x10,x10,1	 x10:0x0000000b x10=0x0000000c
           2804	      1398	00100eb0	10c2f463	bgeu	x5,x12,100fb8	  x5:0x00137868 x12:0x001378e8
           2806	      1399	00100eb4	00470393	addi	x7,x14,4	 x14:0x00137920  x7=0x00137924
           2808	      1400	00100eb8	0513f463	bgeu	x7,x17,100f00	  x7:0x00137924 x17:0x00137964
           2810	      1401	00100ebc	01051e13	slli	x28,x10,0x10	 x10:0x0000000c x28=0x000c0000
           2812	      1402	00100ec0	010e5f93	srli	x31,x28,0x10	 x28:0x000c0000 x31=0x0000000c
           2814	      1403	00100ec4	01efce33	xor	x28,x31,x30	 x31:0x0000000c x30:0x00000000 x28=0x0000000c
           2816	      1404	00100ec8	003e1e13	slli	x28,x28,0x3	 x28:0x0000000c x28=0x00000060
           2818	      1405	00100ecc	078e7e13	andi	x28,x28,120	 x28:0x00000060 x28=0x00000060
           2820	      1406	00100ed0	007fff93	andi	x31,x31,7	 x31:0x0000000c x31=0x00000004
           2822	      1407	00100ed4	00d7a023	sw	x13,0(x15)	 x15:0x00137860 x13:0x00137858 PA:0x00137860 store:0x00137858
           2824	      1408	00100ed8	01fe66b3	or	x13,x28,x31	 x28:0x00000060 x31:0x00000004 x13=0x00000064
           2826	      1409	00100edc	00f5a023	sw	x15,0(x11)	 x11:0x001377f0 x15:0x00137860 PA:0x001377f0 store:0x00137860
           2828	      1410	00100ee0	00869e13	slli	x28,x13,0x8	 x13:0x00000064 x28=0x00006400
           2830	      1411	00100ee4	00e7a223	sw	x14,4(x15)	 x15:0x00137860 x14:0x00137920 PA:0x00137864 store:0x00137920
           2832	      1412	00100ee8	00de6fb3	or	x31,x28,x13	 x28:0x00006400 x13:0x00000064 x31=0x00006464
           2834	      1413	00100eec	01f71023	sh	x31,0(x14)	 x14:0x00137920 x31:0x00006464 PA:0x00137920 store:0x00006464
           2836	      1414	00100ef0	00671123	sh	x6,2(x14)	 x14:0x00137920  x6:0x00007fff PA:0x00137922 store:0x00007fff
           2838	      1415	00100ef4	00078693	addi	x13,x15,0	 x15:0x00137860 x13=0x00137860
           2840	      1416	00100ef8	00038713	addi	x14,x7,0	  x7:0x00137924 x14=0x00137924
           2842	      1417	00100efc	00028793	addi	x15,x5,0	  x5:0x00137868 x15=0x00137868
           2844	      1418	00100f00	00878293	addi	x5,x15,8	 x15:0x00137868  x5=0x00137870
           2846	      1419	00100f04	00150e13	addi	x28,x10,1	 x10:0x0000000c x28=0x0000000d
           2848	      1420	00100f08	0ac2f863	bgeu	x5,x12,100fb8	  x5:0x00137870 x12:0x001378e8
           2850	      1421	00100f0c	00470393	addi	x7,x14,4	 x14:0x00137924  x7=0x00137928
           2852	      1422	00100f10	0513f463	bgeu	x7,x17,100f58	  x7:0x00137928 x17:0x00137964
           2854	      1423	00100f14	010e1f93	slli	x31,x28,0x10	 x28:0x0000000d x31=0x000d0000
           2856	      1424	00100f18	010fdf93	srli	x31,x31,0x10	 x31:0x000d0000 x31=0x0000000d
           2858	      1425	00100f1c	01efce33	xor	x28,x31,x30	 x31:0x0000000d x30:0x00000000 x28=0x0000000d
           2860	      1426	00100f20	003e1e13	slli	x28,x28,0x3	 x28:0x0000000d x28=0x00000068
           2862	      1427	00100f24	078e7e13	andi	x28,x28,120	 x28:0x00000068 x28=0x00000068
           2864	      1428	00100f28	007fff93	andi	x31,x31,7	 x31:0x0000000d x31=0x00000005
           2866	      1429	00100f2c	00d7a023	sw	x13,0(x15)	 x15:0x00137868 x13:0x00137860 PA:0x00137868 store:0x00137860
           2868	      1430	00100f30	01fe66b3	or	x13,x28,x31	 x28:0x00000068 x31:0x00000005 x13=0x0000006d
           2870	      1431	00100f34	00f5a023	sw	x15,0(x11)	 x11:0x001377f0 x15:0x00137868 PA:0x001377f0 store:0x00137868
           2872	      1432	00100f38	00869e13	slli	x28,x13,0x8	 x13:0x0000006d x28=0x00006d00
           2874	      1433	00100f3c	00e7a223	sw	x14,4(x15)	 x15:0x00137868 x14:0x00137924 PA:0x0013786c store:0x00137924
           2876	      1434	00100f40	00de6fb3	or	x31,x28,x13	 x28:0x00006d00 x13:0x0000006d x31=0x00006d6d
           2878	      1435	00100f44	01f71023	sh	x31,0(x14)	 x14:0x00137924 x31:0x00006d6d PA:0x00137924 store:0x00006d6d
           2880	      1436	00100f48	00671123	sh	x6,2(x14)	 x14:0x00137924  x6:0x00007fff PA:0x00137926 store:0x00007fff
           2882	      1437	00100f4c	00078693	addi	x13,x15,0	 x15:0x00137868 x13=0x00137868
           2884	      1438	00100f50	00038713	addi	x14,x7,0	  x7:0x00137928 x14=0x00137928
           2886	      1439	00100f54	00028793	addi	x15,x5,0	  x5:0x00137870 x15=0x00137870
           2888	      1440	00100f58	00878293	addi	x5,x15,8	 x15:0x00137870  x5=0x00137878
           2890	      1441	00100f5c	00250e13	addi	x28,x10,2	 x10:0x0000000c x28=0x0000000e
           2892	      1442	00100f60	04c2fc63	bgeu	x5,x12,100fb8	  x5:0x00137878 x12:0x001378e8
           2894	      1443	00100f64	00470393	addi	x7,x14,4	 x14:0x00137928  x7=0x0013792c
           2896	      1444	00100f68	0513f463	bgeu	x7,x17,100fb0	  x7:0x0013792c x17:0x00137964
           2898	      1445	00100f6c	010e1f93	slli	x31,x28,0x10	 x28:0x0000000e x31=0x000e0000
           2900	      1446	00100f70	010fdf93	srli	x31,x31,0x10	 x31:0x000e0000 x31=0x0000000e
           2902	      1447	00100f74	01efce33	xor	x28,x31,x30	 x31:0x0000000e x30:0x00000000 x28=0x0000000e
           2904	      1448	00100f78	003e1e13	slli	x28,x28,0x3	 x28:0x0000000e x28=0x00000070
           2906	      1449	00100f7c	078e7e13	andi	x28,x28,120	 x28:0x00000070 x28=0x00000070
           2908	      1450	00100f80	007fff93	andi	x31,x31,7	 x31:0x0000000e x31=0x00000006
           2910	      1451	00100f84	00d7a023	sw	x13,0(x15)	 x15:0x00137870 x13:0x00137868 PA:0x00137870 store:0x00137868
           2912	      1452	00100f88	01fe66b3	or	x13,x28,x31	 x28:0x00000070 x31:0x00000006 x13=0x00000076
           2914	      1453	00100f8c	00f5a023	sw	x15,0(x11)	 x11:0x001377f0 x15:0x00137870 PA:0x001377f0 store:0x00137870
           2916	      1454	00100f90	00869e13	slli	x28,x13,0x8	 x13:0x00000076 x28=0x00007600
           2918	      1455	00100f94	00e7a223	sw	x14,4(x15)	 x15:0x00137870 x14:0x00137928 PA:0x00137874 store:0x00137928
           2920	      1456	00100f98	00de6fb3	or	x31,x28,x13	 x28:0x00007600 x13:0x00000076 x31=0x00007676
           2922	      1457	00100f9c	01f71023	sh	x31,0(x14)	 x14:0x00137928 x31:0x00007676 PA:0x00137928 store:0x00007676
           2924	      1458	00100fa0	00671123	sh	x6,2(x14)	 x14:0x00137928  x6:0x00007fff PA:0x0013792a store:0x00007fff
           2926	      1459	00100fa4	00078693	addi	x13,x15,0	 x15:0x00137870 x13=0x00137870
           2928	      1460	00100fa8	00038713	addi	x14,x7,0	  x7:0x0013792c x14=0x0013792c
           2930	      1461	00100fac	00028793	addi	x15,x5,0	  x5:0x00137878 x15=0x00137878
           2932	      1462	00100fb0	00350513	addi	x10,x10,3	 x10:0x0000000c x10=0x0000000f
           2934	      1463	00100fb4	eaa810e3	bne	x16,x10,100e54	 x16:0x0000001f x10:0x0000000f
           2936	      1464	00100e54	00878293	addi	x5,x15,8	 x15:0x00137878  x5=0x00137880
           2938	      1465	00100e58	16c2f063	bgeu	x5,x12,100fb8	  x5:0x00137880 x12:0x001378e8
           2940	      1466	00100e5c	00470393	addi	x7,x14,4	 x14:0x0013792c  x7=0x00137930
           2942	      1467	00100e60	0513f463	bgeu	x7,x17,100ea8	  x7:0x00137930 x17:0x00137964
           2944	      1468	00100e64	01051e13	slli	x28,x10,0x10	 x10:0x0000000f x28=0x000f0000
           2946	      1469	00100e68	010e5f93	srli	x31,x28,0x10	 x28:0x000f0000 x31=0x0000000f
           2948	      1470	00100e6c	01efce33	xor	x28,x31,x30	 x31:0x0000000f x30:0x00000000 x28=0x0000000f
           2950	      1471	00100e70	003e1e13	slli	x28,x28,0x3	 x28:0x0000000f x28=0x00000078
           2952	      1472	00100e74	078e7e13	andi	x28,x28,120	 x28:0x00000078 x28=0x00000078
           2954	      1473	00100e78	007fff93	andi	x31,x31,7	 x31:0x0000000f x31=0x00000007
           2956	      1474	00100e7c	00d7a023	sw	x13,0(x15)	 x15:0x00137878 x13:0x00137870 PA:0x00137878 store:0x00137870
           2958	      1475	00100e80	01fe66b3	or	x13,x28,x31	 x28:0x00000078 x31:0x00000007 x13=0x0000007f
           2960	      1476	00100e84	00f5a023	sw	x15,0(x11)	 x11:0x001377f0 x15:0x00137878 PA:0x001377f0 store:0x00137878
           2962	      1477	00100e88	00869e13	slli	x28,x13,0x8	 x13:0x0000007f x28=0x00007f00
           2964	      1478	00100e8c	00e7a223	sw	x14,4(x15)	 x15:0x00137878 x14:0x0013792c PA:0x0013787c store:0x0013792c
           2966	      1479	00100e90	00de6fb3	or	x31,x28,x13	 x28:0x00007f00 x13:0x0000007f x31=0x00007f7f
           2968	      1480	00100e94	01f71023	sh	x31,0(x14)	 x14:0x0013792c x31:0x00007f7f PA:0x0013792c store:0x00007f7f
           2970	      1481	00100e98	00671123	sh	x6,2(x14)	 x14:0x0013792c  x6:0x00007fff PA:0x0013792e store:0x00007fff
           2972	      1482	00100e9c	00078693	addi	x13,x15,0	 x15:0x00137878 x13=0x00137878
           2974	      1483	00100ea0	00038713	addi	x14,x7,0	  x7:0x00137930 x14=0x00137930
           2976	      1484	00100ea4	00028793	addi	x15,x5,0	  x5:0x00137880 x15=0x00137880
           2978	      1485	00100ea8	00878293	addi	x5,x15,8	 x15:0x00137880  x5=0x00137888
           2980	      1486	00100eac	00150513	addi	x10,x10,1	 x10:0x0000000f x10=0x00000010
           2982	      1487	00100eb0	10c2f463	bgeu	x5,x12,100fb8	  x5:0x00137888 x12:0x001378e8
           2984	      1488	00100eb4	00470393	addi	x7,x14,4	 x14:0x00137930  x7=0x00137934
           2986	      1489	00100eb8	0513f463	bgeu	x7,x17,100f00	  x7:0x00137934 x17:0x00137964
           2988	      1490	00100ebc	01051e13	slli	x28,x10,0x10	 x10:0x00000010 x28=0x00100000
           2990	      1491	00100ec0	010e5f93	srli	x31,x28,0x10	 x28:0x00100000 x31=0x00000010
           2992	      1492	00100ec4	01efce33	xor	x28,x31,x30	 x31:0x00000010 x30:0x00000000 x28=0x00000010
           2994	      1493	00100ec8	003e1e13	slli	x28,x28,0x3	 x28:0x00000010 x28=0x00000080
           2996	      1494	00100ecc	078e7e13	andi	x28,x28,120	 x28:0x00000080 x28=0x00000000
           2998	      1495	00100ed0	007fff93	andi	x31,x31,7	 x31:0x00000010 x31=0x00000000
           3000	      1496	00100ed4	00d7a023	sw	x13,0(x15)	 x15:0x00137880 x13:0x00137878 PA:0x00137880 store:0x00137878
           3002	      1497	00100ed8	01fe66b3	or	x13,x28,x31	 x28:0x00000000 x31:0x00000000 x13=0x00000000
           3004	      1498	00100edc	00f5a023	sw	x15,0(x11)	 x11:0x001377f0 x15:0x00137880 PA:0x001377f0 store:0x00137880
           3006	      1499	00100ee0	00869e13	slli	x28,x13,0x8	 x13:0x00000000 x28=0x00000000
           3008	      1500	00100ee4	00e7a223	sw	x14,4(x15)	 x15:0x00137880 x14:0x00137930 PA:0x00137884 store:0x00137930
           3010	      1501	00100ee8	00de6fb3	or	x31,x28,x13	 x28:0x00000000 x13:0x00000000 x31=0x00000000
           3012	      1502	00100eec	01f71023	sh	x31,0(x14)	 x14:0x00137930 x31:0x00000000 PA:0x00137930 store:0x00000000
           3014	      1503	00100ef0	00671123	sh	x6,2(x14)	 x14:0x00137930  x6:0x00007fff PA:0x00137932 store:0x00007fff
           3016	      1504	00100ef4	00078693	addi	x13,x15,0	 x15:0x00137880 x13=0x00137880
           3018	      1505	00100ef8	00038713	addi	x14,x7,0	  x7:0x00137934 x14=0x00137934
           3020	      1506	00100efc	00028793	addi	x15,x5,0	  x5:0x00137888 x15=0x00137888
           3022	      1507	00100f00	00878293	addi	x5,x15,8	 x15:0x00137888  x5=0x00137890
           3024	      1508	00100f04	00150e13	addi	x28,x10,1	 x10:0x00000010 x28=0x00000011
           3026	      1509	00100f08	0ac2f863	bgeu	x5,x12,100fb8	  x5:0x00137890 x12:0x001378e8
           3028	      1510	00100f0c	00470393	addi	x7,x14,4	 x14:0x00137934  x7=0x00137938
           3030	      1511	00100f10	0513f463	bgeu	x7,x17,100f58	  x7:0x00137938 x17:0x00137964
           3032	      1512	00100f14	010e1f93	slli	x31,x28,0x10	 x28:0x00000011 x31=0x00110000
           3034	      1513	00100f18	010fdf93	srli	x31,x31,0x10	 x31:0x00110000 x31=0x00000011
           3036	      1514	00100f1c	01efce33	xor	x28,x31,x30	 x31:0x00000011 x30:0x00000000 x28=0x00000011
           3038	      1515	00100f20	003e1e13	slli	x28,x28,0x3	 x28:0x00000011 x28=0x00000088
           3040	      1516	00100f24	078e7e13	andi	x28,x28,120	 x28:0x00000088 x28=0x00000008
           3042	      1517	00100f28	007fff93	andi	x31,x31,7	 x31:0x00000011 x31=0x00000001
           3044	      1518	00100f2c	00d7a023	sw	x13,0(x15)	 x15:0x00137888 x13:0x00137880 PA:0x00137888 store:0x00137880
           3046	      1519	00100f30	01fe66b3	or	x13,x28,x31	 x28:0x00000008 x31:0x00000001 x13=0x00000009
           3048	      1520	00100f34	00f5a023	sw	x15,0(x11)	 x11:0x001377f0 x15:0x00137888 PA:0x001377f0 store:0x00137888
           3050	      1521	00100f38	00869e13	slli	x28,x13,0x8	 x13:0x00000009 x28=0x00000900
           3052	      1522	00100f3c	00e7a223	sw	x14,4(x15)	 x15:0x00137888 x14:0x00137934 PA:0x0013788c store:0x00137934
           3054	      1523	00100f40	00de6fb3	or	x31,x28,x13	 x28:0x00000900 x13:0x00000009 x31=0x00000909
           3056	      1524	00100f44	01f71023	sh	x31,0(x14)	 x14:0x00137934 x31:0x00000909 PA:0x00137934 store:0x00000909
           3058	      1525	00100f48	00671123	sh	x6,2(x14)	 x14:0x00137934  x6:0x00007fff PA:0x00137936 store:0x00007fff
           3060	      1526	00100f4c	00078693	addi	x13,x15,0	 x15:0x00137888 x13=0x00137888
           3062	      1527	00100f50	00038713	addi	x14,x7,0	  x7:0x00137938 x14=0x00137938
           3064	      1528	00100f54	00028793	addi	x15,x5,0	  x5:0x00137890 x15=0x00137890
           3066	      1529	00100f58	00878293	addi	x5,x15,8	 x15:0x00137890  x5=0x00137898
           3068	      1530	00100f5c	00250e13	addi	x28,x10,2	 x10:0x00000010 x28=0x00000012
           3070	      1531	00100f60	04c2fc63	bgeu	x5,x12,100fb8	  x5:0x00137898 x12:0x001378e8
           3072	      1532	00100f64	00470393	addi	x7,x14,4	 x14:0x00137938  x7=0x0013793c
           3074	      1533	00100f68	0513f463	bgeu	x7,x17,100fb0	  x7:0x0013793c x17:0x00137964
           3076	      1534	00100f6c	010e1f93	slli	x31,x28,0x10	 x28:0x00000012 x31=0x00120000
           3078	      1535	00100f70	010fdf93	srli	x31,x31,0x10	 x31:0x00120000 x31=0x00000012
           3080	      1536	00100f74	01efce33	xor	x28,x31,x30	 x31:0x00000012 x30:0x00000000 x28=0x00000012
           3082	      1537	00100f78	003e1e13	slli	x28,x28,0x3	 x28:0x00000012 x28=0x00000090
           3084	      1538	00100f7c	078e7e13	andi	x28,x28,120	 x28:0x00000090 x28=0x00000010
           3086	      1539	00100f80	007fff93	andi	x31,x31,7	 x31:0x00000012 x31=0x00000002
           3088	      1540	00100f84	00d7a023	sw	x13,0(x15)	 x15:0x00137890 x13:0x00137888 PA:0x00137890 store:0x00137888
           3090	      1541	00100f88	01fe66b3	or	x13,x28,x31	 x28:0x00000010 x31:0x00000002 x13=0x00000012
           3092	      1542	00100f8c	00f5a023	sw	x15,0(x11)	 x11:0x001377f0 x15:0x00137890 PA:0x001377f0 store:0x00137890
           3094	      1543	00100f90	00869e13	slli	x28,x13,0x8	 x13:0x00000012 x28=0x00001200
           3096	      1544	00100f94	00e7a223	sw	x14,4(x15)	 x15:0x00137890 x14:0x00137938 PA:0x00137894 store:0x00137938
           3098	      1545	00100f98	00de6fb3	or	x31,x28,x13	 x28:0x00001200 x13:0x00000012 x31=0x00001212
           3100	      1546	00100f9c	01f71023	sh	x31,0(x14)	 x14:0x00137938 x31:0x00001212 PA:0x00137938 store:0x00001212
           3102	      1547	00100fa0	00671123	sh	x6,2(x14)	 x14:0x00137938  x6:0x00007fff PA:0x0013793a store:0x00007fff
           3104	      1548	00100fa4	00078693	addi	x13,x15,0	 x15:0x00137890 x13=0x00137890
           3106	      1549	00100fa8	00038713	addi	x14,x7,0	  x7:0x0013793c x14=0x0013793c
           3108	      1550	00100fac	00028793	addi	x15,x5,0	  x5:0x00137898 x15=0x00137898
           3110	      1551	00100fb0	00350513	addi	x10,x10,3	 x10:0x00000010 x10=0x00000013
           3112	      1552	00100fb4	eaa810e3	bne	x16,x10,100e54	 x16:0x0000001f x10:0x00000013
           3114	      1553	00100e54	00878293	addi	x5,x15,8	 x15:0x00137898  x5=0x001378a0
           3116	      1554	00100e58	16c2f063	bgeu	x5,x12,100fb8	  x5:0x001378a0 x12:0x001378e8
           3118	      1555	00100e5c	00470393	addi	x7,x14,4	 x14:0x0013793c  x7=0x00137940
           3120	      1556	00100e60	0513f463	bgeu	x7,x17,100ea8	  x7:0x00137940 x17:0x00137964
           3122	      1557	00100e64	01051e13	slli	x28,x10,0x10	 x10:0x00000013 x28=0x00130000
           3124	      1558	00100e68	010e5f93	srli	x31,x28,0x10	 x28:0x00130000 x31=0x00000013
           3126	      1559	00100e6c	01efce33	xor	x28,x31,x30	 x31:0x00000013 x30:0x00000000 x28=0x00000013
           3128	      1560	00100e70	003e1e13	slli	x28,x28,0x3	 x28:0x00000013 x28=0x00000098
           3130	      1561	00100e74	078e7e13	andi	x28,x28,120	 x28:0x00000098 x28=0x00000018
           3132	      1562	00100e78	007fff93	andi	x31,x31,7	 x31:0x00000013 x31=0x00000003
           3134	      1563	00100e7c	00d7a023	sw	x13,0(x15)	 x15:0x00137898 x13:0x00137890 PA:0x00137898 store:0x00137890
           3136	      1564	00100e80	01fe66b3	or	x13,x28,x31	 x28:0x00000018 x31:0x00000003 x13=0x0000001b
           3138	      1565	00100e84	00f5a023	sw	x15,0(x11)	 x11:0x001377f0 x15:0x00137898 PA:0x001377f0 store:0x00137898
           3140	      1566	00100e88	00869e13	slli	x28,x13,0x8	 x13:0x0000001b x28=0x00001b00
           3142	      1567	00100e8c	00e7a223	sw	x14,4(x15)	 x15:0x00137898 x14:0x0013793c PA:0x0013789c store:0x0013793c
           3144	      1568	00100e90	00de6fb3	or	x31,x28,x13	 x28:0x00001b00 x13:0x0000001b x31=0x00001b1b
           3146	      1569	00100e94	01f71023	sh	x31,0(x14)	 x14:0x0013793c x31:0x00001b1b PA:0x0013793c store:0x00001b1b
           3148	      1570	00100e98	00671123	sh	x6,2(x14)	 x14:0x0013793c  x6:0x00007fff PA:0x0013793e store:0x00007fff
           3150	      1571	00100e9c	00078693	addi	x13,x15,0	 x15:0x00137898 x13=0x00137898
           3152	      1572	00100ea0	00038713	addi	x14,x7,0	  x7:0x00137940 x14=0x00137940
           3154	      1573	00100ea4	00028793	addi	x15,x5,0	  x5:0x001378a0 x15=0x001378a0
           3156	      1574	00100ea8	00878293	addi	x5,x15,8	 x15:0x001378a0  x5=0x001378a8
           3158	      1575	00100eac	00150513	addi	x10,x10,1	 x10:0x00000013 x10=0x00000014
           3160	      1576	00100eb0	10c2f463	bgeu	x5,x12,100fb8	  x5:0x001378a8 x12:0x001378e8
           3162	      1577	00100eb4	00470393	addi	x7,x14,4	 x14:0x00137940  x7=0x00137944
           3164	      1578	00100eb8	0513f463	bgeu	x7,x17,100f00	  x7:0x00137944 x17:0x00137964
           3166	      1579	00100ebc	01051e13	slli	x28,x10,0x10	 x10:0x00000014 x28=0x00140000
           3168	      1580	00100ec0	010e5f93	srli	x31,x28,0x10	 x28:0x00140000 x31=0x00000014
           3170	      1581	00100ec4	01efce33	xor	x28,x31,x30	 x31:0x00000014 x30:0x00000000 x28=0x00000014
           3172	      1582	00100ec8	003e1e13	slli	x28,x28,0x3	 x28:0x00000014 x28=0x000000a0
           3174	      1583	00100ecc	078e7e13	andi	x28,x28,120	 x28:0x000000a0 x28=0x00000020
           3176	      1584	00100ed0	007fff93	andi	x31,x31,7	 x31:0x00000014 x31=0x00000004
           3178	      1585	00100ed4	00d7a023	sw	x13,0(x15)	 x15:0x001378a0 x13:0x00137898 PA:0x001378a0 store:0x00137898
           3180	      1586	00100ed8	01fe66b3	or	x13,x28,x31	 x28:0x00000020 x31:0x00000004 x13=0x00000024
           3182	      1587	00100edc	00f5a023	sw	x15,0(x11)	 x11:0x001377f0 x15:0x001378a0 PA:0x001377f0 store:0x001378a0
           3184	      1588	00100ee0	00869e13	slli	x28,x13,0x8	 x13:0x00000024 x28=0x00002400
           3186	      1589	00100ee4	00e7a223	sw	x14,4(x15)	 x15:0x001378a0 x14:0x00137940 PA:0x001378a4 store:0x00137940
           3188	      1590	00100ee8	00de6fb3	or	x31,x28,x13	 x28:0x00002400 x13:0x00000024 x31=0x00002424
           3190	      1591	00100eec	01f71023	sh	x31,0(x14)	 x14:0x00137940 x31:0x00002424 PA:0x00137940 store:0x00002424
           3192	      1592	00100ef0	00671123	sh	x6,2(x14)	 x14:0x00137940  x6:0x00007fff PA:0x00137942 store:0x00007fff
           3194	      1593	00100ef4	00078693	addi	x13,x15,0	 x15:0x001378a0 x13=0x001378a0
           3196	      1594	00100ef8	00038713	addi	x14,x7,0	  x7:0x00137944 x14=0x00137944
           3198	      1595	00100efc	00028793	addi	x15,x5,0	  x5:0x001378a8 x15=0x001378a8
           3200	      1596	00100f00	00878293	addi	x5,x15,8	 x15:0x001378a8  x5=0x001378b0
           3202	      1597	00100f04	00150e13	addi	x28,x10,1	 x10:0x00000014 x28=0x00000015
           3204	      1598	00100f08	0ac2f863	bgeu	x5,x12,100fb8	  x5:0x001378b0 x12:0x001378e8
           3206	      1599	00100f0c	00470393	addi	x7,x14,4	 x14:0x00137944  x7=0x00137948
           3208	      1600	00100f10	0513f463	bgeu	x7,x17,100f58	  x7:0x00137948 x17:0x00137964
           3210	      1601	00100f14	010e1f93	slli	x31,x28,0x10	 x28:0x00000015 x31=0x00150000
           3212	      1602	00100f18	010fdf93	srli	x31,x31,0x10	 x31:0x00150000 x31=0x00000015
           3214	      1603	00100f1c	01efce33	xor	x28,x31,x30	 x31:0x00000015 x30:0x00000000 x28=0x00000015
           3216	      1604	00100f20	003e1e13	slli	x28,x28,0x3	 x28:0x00000015 x28=0x000000a8
           3218	      1605	00100f24	078e7e13	andi	x28,x28,120	 x28:0x000000a8 x28=0x00000028
           3220	      1606	00100f28	007fff93	andi	x31,x31,7	 x31:0x00000015 x31=0x00000005
           3222	      1607	00100f2c	00d7a023	sw	x13,0(x15)	 x15:0x001378a8 x13:0x001378a0 PA:0x001378a8 store:0x001378a0
           3224	      1608	00100f30	01fe66b3	or	x13,x28,x31	 x28:0x00000028 x31:0x00000005 x13=0x0000002d
           3226	      1609	00100f34	00f5a023	sw	x15,0(x11)	 x11:0x001377f0 x15:0x001378a8 PA:0x001377f0 store:0x001378a8
           3228	      1610	00100f38	00869e13	slli	x28,x13,0x8	 x13:0x0000002d x28=0x00002d00
           3230	      1611	00100f3c	00e7a223	sw	x14,4(x15)	 x15:0x001378a8 x14:0x00137944 PA:0x001378ac store:0x00137944
           3232	      1612	00100f40	00de6fb3	or	x31,x28,x13	 x28:0x00002d00 x13:0x0000002d x31=0x00002d2d
           3234	      1613	00100f44	01f71023	sh	x31,0(x14)	 x14:0x00137944 x31:0x00002d2d PA:0x00137944 store:0x00002d2d
           3236	      1614	00100f48	00671123	sh	x6,2(x14)	 x14:0x00137944  x6:0x00007fff PA:0x00137946 store:0x00007fff
           3238	      1615	00100f4c	00078693	addi	x13,x15,0	 x15:0x001378a8 x13=0x001378a8
           3240	      1616	00100f50	00038713	addi	x14,x7,0	  x7:0x00137948 x14=0x00137948
           3242	      1617	00100f54	00028793	addi	x15,x5,0	  x5:0x001378b0 x15=0x001378b0
           3244	      1618	00100f58	00878293	addi	x5,x15,8	 x15:0x001378b0  x5=0x001378b8
           3246	      1619	00100f5c	00250e13	addi	x28,x10,2	 x10:0x00000014 x28=0x00000016
           3248	      1620	00100f60	04c2fc63	bgeu	x5,x12,100fb8	  x5:0x001378b8 x12:0x001378e8
           3250	      1621	00100f64	00470393	addi	x7,x14,4	 x14:0x00137948  x7=0x0013794c
           3252	      1622	00100f68	0513f463	bgeu	x7,x17,100fb0	  x7:0x0013794c x17:0x00137964
           3254	      1623	00100f6c	010e1f93	slli	x31,x28,0x10	 x28:0x00000016 x31=0x00160000
           3256	      1624	00100f70	010fdf93	srli	x31,x31,0x10	 x31:0x00160000 x31=0x00000016
           3258	      1625	00100f74	01efce33	xor	x28,x31,x30	 x31:0x00000016 x30:0x00000000 x28=0x00000016
           3260	      1626	00100f78	003e1e13	slli	x28,x28,0x3	 x28:0x00000016 x28=0x000000b0
           3262	      1627	00100f7c	078e7e13	andi	x28,x28,120	 x28:0x000000b0 x28=0x00000030
           3264	      1628	00100f80	007fff93	andi	x31,x31,7	 x31:0x00000016 x31=0x00000006
           3266	      1629	00100f84	00d7a023	sw	x13,0(x15)	 x15:0x001378b0 x13:0x001378a8 PA:0x001378b0 store:0x001378a8
           3268	      1630	00100f88	01fe66b3	or	x13,x28,x31	 x28:0x00000030 x31:0x00000006 x13=0x00000036
           3270	      1631	00100f8c	00f5a023	sw	x15,0(x11)	 x11:0x001377f0 x15:0x001378b0 PA:0x001377f0 store:0x001378b0
           3272	      1632	00100f90	00869e13	slli	x28,x13,0x8	 x13:0x00000036 x28=0x00003600
           3274	      1633	00100f94	00e7a223	sw	x14,4(x15)	 x15:0x001378b0 x14:0x00137948 PA:0x001378b4 store:0x00137948
           3276	      1634	00100f98	00de6fb3	or	x31,x28,x13	 x28:0x00003600 x13:0x00000036 x31=0x00003636
           3278	      1635	00100f9c	01f71023	sh	x31,0(x14)	 x14:0x00137948 x31:0x00003636 PA:0x00137948 store:0x00003636
           3280	      1636	00100fa0	00671123	sh	x6,2(x14)	 x14:0x00137948  x6:0x00007fff PA:0x0013794a store:0x00007fff
           3282	      1637	00100fa4	00078693	addi	x13,x15,0	 x15:0x001378b0 x13=0x001378b0
           3284	      1638	00100fa8	00038713	addi	x14,x7,0	  x7:0x0013794c x14=0x0013794c
           3286	      1639	00100fac	00028793	addi	x15,x5,0	  x5:0x001378b8 x15=0x001378b8
           3288	      1640	00100fb0	00350513	addi	x10,x10,3	 x10:0x00000014 x10=0x00000017
           3290	      1641	00100fb4	eaa810e3	bne	x16,x10,100e54	 x16:0x0000001f x10:0x00000017
           3292	      1642	00100e54	00878293	addi	x5,x15,8	 x15:0x001378b8  x5=0x001378c0
           3294	      1643	00100e58	16c2f063	bgeu	x5,x12,100fb8	  x5:0x001378c0 x12:0x001378e8
           3296	      1644	00100e5c	00470393	addi	x7,x14,4	 x14:0x0013794c  x7=0x00137950
           3298	      1645	00100e60	0513f463	bgeu	x7,x17,100ea8	  x7:0x00137950 x17:0x00137964
           3300	      1646	00100e64	01051e13	slli	x28,x10,0x10	 x10:0x00000017 x28=0x00170000
           3302	      1647	00100e68	010e5f93	srli	x31,x28,0x10	 x28:0x00170000 x31=0x00000017
           3304	      1648	00100e6c	01efce33	xor	x28,x31,x30	 x31:0x00000017 x30:0x00000000 x28=0x00000017
           3306	      1649	00100e70	003e1e13	slli	x28,x28,0x3	 x28:0x00000017 x28=0x000000b8
           3308	      1650	00100e74	078e7e13	andi	x28,x28,120	 x28:0x000000b8 x28=0x00000038
           3310	      1651	00100e78	007fff93	andi	x31,x31,7	 x31:0x00000017 x31=0x00000007
           3312	      1652	00100e7c	00d7a023	sw	x13,0(x15)	 x15:0x001378b8 x13:0x001378b0 PA:0x001378b8 store:0x001378b0
           3314	      1653	00100e80	01fe66b3	or	x13,x28,x31	 x28:0x00000038 x31:0x00000007 x13=0x0000003f
           3316	      1654	00100e84	00f5a023	sw	x15,0(x11)	 x11:0x001377f0 x15:0x001378b8 PA:0x001377f0 store:0x001378b8
           3318	      1655	00100e88	00869e13	slli	x28,x13,0x8	 x13:0x0000003f x28=0x00003f00
           3320	      1656	00100e8c	00e7a223	sw	x14,4(x15)	 x15:0x001378b8 x14:0x0013794c PA:0x001378bc store:0x0013794c
           3322	      1657	00100e90	00de6fb3	or	x31,x28,x13	 x28:0x00003f00 x13:0x0000003f x31=0x00003f3f
           3324	      1658	00100e94	01f71023	sh	x31,0(x14)	 x14:0x0013794c x31:0x00003f3f PA:0x0013794c store:0x00003f3f
           3326	      1659	00100e98	00671123	sh	x6,2(x14)	 x14:0x0013794c  x6:0x00007fff PA:0x0013794e store:0x00007fff
           3328	      1660	00100e9c	00078693	addi	x13,x15,0	 x15:0x001378b8 x13=0x001378b8
           3330	      1661	00100ea0	00038713	addi	x14,x7,0	  x7:0x00137950 x14=0x00137950
           3332	      1662	00100ea4	00028793	addi	x15,x5,0	  x5:0x001378c0 x15=0x001378c0
           3334	      1663	00100ea8	00878293	addi	x5,x15,8	 x15:0x001378c0  x5=0x001378c8
           3336	      1664	00100eac	00150513	addi	x10,x10,1	 x10:0x00000017 x10=0x00000018
           3338	      1665	00100eb0	10c2f463	bgeu	x5,x12,100fb8	  x5:0x001378c8 x12:0x001378e8
           3340	      1666	00100eb4	00470393	addi	x7,x14,4	 x14:0x00137950  x7=0x00137954
           3342	      1667	00100eb8	0513f463	bgeu	x7,x17,100f00	  x7:0x00137954 x17:0x00137964
           3344	      1668	00100ebc	01051e13	slli	x28,x10,0x10	 x10:0x00000018 x28=0x00180000
           3346	      1669	00100ec0	010e5f93	srli	x31,x28,0x10	 x28:0x00180000 x31=0x00000018
           3348	      1670	00100ec4	01efce33	xor	x28,x31,x30	 x31:0x00000018 x30:0x00000000 x28=0x00000018
           3350	      1671	00100ec8	003e1e13	slli	x28,x28,0x3	 x28:0x00000018 x28=0x000000c0
           3352	      1672	00100ecc	078e7e13	andi	x28,x28,120	 x28:0x000000c0 x28=0x00000040
           3354	      1673	00100ed0	007fff93	andi	x31,x31,7	 x31:0x00000018 x31=0x00000000
           3356	      1674	00100ed4	00d7a023	sw	x13,0(x15)	 x15:0x001378c0 x13:0x001378b8 PA:0x001378c0 store:0x001378b8
           3358	      1675	00100ed8	01fe66b3	or	x13,x28,x31	 x28:0x00000040 x31:0x00000000 x13=0x00000040
           3360	      1676	00100edc	00f5a023	sw	x15,0(x11)	 x11:0x001377f0 x15:0x001378c0 PA:0x001377f0 store:0x001378c0
           3362	      1677	00100ee0	00869e13	slli	x28,x13,0x8	 x13:0x00000040 x28=0x00004000
           3364	      1678	00100ee4	00e7a223	sw	x14,4(x15)	 x15:0x001378c0 x14:0x00137950 PA:0x001378c4 store:0x00137950
           3366	      1679	00100ee8	00de6fb3	or	x31,x28,x13	 x28:0x00004000 x13:0x00000040 x31=0x00004040
           3368	      1680	00100eec	01f71023	sh	x31,0(x14)	 x14:0x00137950 x31:0x00004040 PA:0x00137950 store:0x00004040
           3370	      1681	00100ef0	00671123	sh	x6,2(x14)	 x14:0x00137950  x6:0x00007fff PA:0x00137952 store:0x00007fff
           3372	      1682	00100ef4	00078693	addi	x13,x15,0	 x15:0x001378c0 x13=0x001378c0
           3374	      1683	00100ef8	00038713	addi	x14,x7,0	  x7:0x00137954 x14=0x00137954
           3376	      1684	00100efc	00028793	addi	x15,x5,0	  x5:0x001378c8 x15=0x001378c8
           3378	      1685	00100f00	00878293	addi	x5,x15,8	 x15:0x001378c8  x5=0x001378d0
           3380	      1686	00100f04	00150e13	addi	x28,x10,1	 x10:0x00000018 x28=0x00000019
           3382	      1687	00100f08	0ac2f863	bgeu	x5,x12,100fb8	  x5:0x001378d0 x12:0x001378e8
           3384	      1688	00100f0c	00470393	addi	x7,x14,4	 x14:0x00137954  x7=0x00137958
           3386	      1689	00100f10	0513f463	bgeu	x7,x17,100f58	  x7:0x00137958 x17:0x00137964
           3388	      1690	00100f14	010e1f93	slli	x31,x28,0x10	 x28:0x00000019 x31=0x00190000
           3390	      1691	00100f18	010fdf93	srli	x31,x31,0x10	 x31:0x00190000 x31=0x00000019
           3392	      1692	00100f1c	01efce33	xor	x28,x31,x30	 x31:0x00000019 x30:0x00000000 x28=0x00000019
           3394	      1693	00100f20	003e1e13	slli	x28,x28,0x3	 x28:0x00000019 x28=0x000000c8
           3396	      1694	00100f24	078e7e13	andi	x28,x28,120	 x28:0x000000c8 x28=0x00000048
           3398	      1695	00100f28	007fff93	andi	x31,x31,7	 x31:0x00000019 x31=0x00000001
           3400	      1696	00100f2c	00d7a023	sw	x13,0(x15)	 x15:0x001378c8 x13:0x001378c0 PA:0x001378c8 store:0x001378c0
           3402	      1697	00100f30	01fe66b3	or	x13,x28,x31	 x28:0x00000048 x31:0x00000001 x13=0x00000049
           3404	      1698	00100f34	00f5a023	sw	x15,0(x11)	 x11:0x001377f0 x15:0x001378c8 PA:0x001377f0 store:0x001378c8
           3406	      1699	00100f38	00869e13	slli	x28,x13,0x8	 x13:0x00000049 x28=0x00004900
           3408	      1700	00100f3c	00e7a223	sw	x14,4(x15)	 x15:0x001378c8 x14:0x00137954 PA:0x001378cc store:0x00137954
           3410	      1701	00100f40	00de6fb3	or	x31,x28,x13	 x28:0x00004900 x13:0x00000049 x31=0x00004949
           3412	      1702	00100f44	01f71023	sh	x31,0(x14)	 x14:0x00137954 x31:0x00004949 PA:0x00137954 store:0x00004949
           3414	      1703	00100f48	00671123	sh	x6,2(x14)	 x14:0x00137954  x6:0x00007fff PA:0x00137956 store:0x00007fff
           3416	      1704	00100f4c	00078693	addi	x13,x15,0	 x15:0x001378c8 x13=0x001378c8
           3418	      1705	00100f50	00038713	addi	x14,x7,0	  x7:0x00137958 x14=0x00137958
           3420	      1706	00100f54	00028793	addi	x15,x5,0	  x5:0x001378d0 x15=0x001378d0
           3422	      1707	00100f58	00878293	addi	x5,x15,8	 x15:0x001378d0  x5=0x001378d8
           3424	      1708	00100f5c	00250e13	addi	x28,x10,2	 x10:0x00000018 x28=0x0000001a
           3426	      1709	00100f60	04c2fc63	bgeu	x5,x12,100fb8	  x5:0x001378d8 x12:0x001378e8
           3428	      1710	00100f64	00470393	addi	x7,x14,4	 x14:0x00137958  x7=0x0013795c
           3430	      1711	00100f68	0513f463	bgeu	x7,x17,100fb0	  x7:0x0013795c x17:0x00137964
           3432	      1712	00100f6c	010e1f93	slli	x31,x28,0x10	 x28:0x0000001a x31=0x001a0000
           3434	      1713	00100f70	010fdf93	srli	x31,x31,0x10	 x31:0x001a0000 x31=0x0000001a
           3436	      1714	00100f74	01efce33	xor	x28,x31,x30	 x31:0x0000001a x30:0x00000000 x28=0x0000001a
           3438	      1715	00100f78	003e1e13	slli	x28,x28,0x3	 x28:0x0000001a x28=0x000000d0
           3440	      1716	00100f7c	078e7e13	andi	x28,x28,120	 x28:0x000000d0 x28=0x00000050
           3442	      1717	00100f80	007fff93	andi	x31,x31,7	 x31:0x0000001a x31=0x00000002
           3444	      1718	00100f84	00d7a023	sw	x13,0(x15)	 x15:0x001378d0 x13:0x001378c8 PA:0x001378d0 store:0x001378c8
           3446	      1719	00100f88	01fe66b3	or	x13,x28,x31	 x28:0x00000050 x31:0x00000002 x13=0x00000052
           3448	      1720	00100f8c	00f5a023	sw	x15,0(x11)	 x11:0x001377f0 x15:0x001378d0 PA:0x001377f0 store:0x001378d0
           3450	      1721	00100f90	00869e13	slli	x28,x13,0x8	 x13:0x00000052 x28=0x00005200
           3452	      1722	00100f94	00e7a223	sw	x14,4(x15)	 x15:0x001378d0 x14:0x00137958 PA:0x001378d4 store:0x00137958
           3454	      1723	00100f98	00de6fb3	or	x31,x28,x13	 x28:0x00005200 x13:0x00000052 x31=0x00005252
           3456	      1724	00100f9c	01f71023	sh	x31,0(x14)	 x14:0x00137958 x31:0x00005252 PA:0x00137958 store:0x00005252
           3458	      1725	00100fa0	00671123	sh	x6,2(x14)	 x14:0x00137958  x6:0x00007fff PA:0x0013795a store:0x00007fff
           3460	      1726	00100fa4	00078693	addi	x13,x15,0	 x15:0x001378d0 x13=0x001378d0
           3462	      1727	00100fa8	00038713	addi	x14,x7,0	  x7:0x0013795c x14=0x0013795c
           3464	      1728	00100fac	00028793	addi	x15,x5,0	  x5:0x001378d8 x15=0x001378d8
           3466	      1729	00100fb0	00350513	addi	x10,x10,3	 x10:0x00000018 x10=0x0000001b
           3468	      1730	00100fb4	eaa810e3	bne	x16,x10,100e54	 x16:0x0000001f x10:0x0000001b
           3470	      1731	00100e54	00878293	addi	x5,x15,8	 x15:0x001378d8  x5=0x001378e0
           3472	      1732	00100e58	16c2f063	bgeu	x5,x12,100fb8	  x5:0x001378e0 x12:0x001378e8
           3474	      1733	00100e5c	00470393	addi	x7,x14,4	 x14:0x0013795c  x7=0x00137960
           3476	      1734	00100e60	0513f463	bgeu	x7,x17,100ea8	  x7:0x00137960 x17:0x00137964
           3478	      1735	00100e64	01051e13	slli	x28,x10,0x10	 x10:0x0000001b x28=0x001b0000
           3480	      1736	00100e68	010e5f93	srli	x31,x28,0x10	 x28:0x001b0000 x31=0x0000001b
           3482	      1737	00100e6c	01efce33	xor	x28,x31,x30	 x31:0x0000001b x30:0x00000000 x28=0x0000001b
           3484	      1738	00100e70	003e1e13	slli	x28,x28,0x3	 x28:0x0000001b x28=0x000000d8
           3486	      1739	00100e74	078e7e13	andi	x28,x28,120	 x28:0x000000d8 x28=0x00000058
           3488	      1740	00100e78	007fff93	andi	x31,x31,7	 x31:0x0000001b x31=0x00000003
           3490	      1741	00100e7c	00d7a023	sw	x13,0(x15)	 x15:0x001378d8 x13:0x001378d0 PA:0x001378d8 store:0x001378d0
           3492	      1742	00100e80	01fe66b3	or	x13,x28,x31	 x28:0x00000058 x31:0x00000003 x13=0x0000005b
           3494	      1743	00100e84	00f5a023	sw	x15,0(x11)	 x11:0x001377f0 x15:0x001378d8 PA:0x001377f0 store:0x001378d8
           3496	      1744	00100e88	00869e13	slli	x28,x13,0x8	 x13:0x0000005b x28=0x00005b00
           3498	      1745	00100e8c	00e7a223	sw	x14,4(x15)	 x15:0x001378d8 x14:0x0013795c PA:0x001378dc store:0x0013795c
           3500	      1746	00100e90	00de6fb3	or	x31,x28,x13	 x28:0x00005b00 x13:0x0000005b x31=0x00005b5b
           3502	      1747	00100e94	01f71023	sh	x31,0(x14)	 x14:0x0013795c x31:0x00005b5b PA:0x0013795c store:0x00005b5b
           3504	      1748	00100e98	00671123	sh	x6,2(x14)	 x14:0x0013795c  x6:0x00007fff PA:0x0013795e store:0x00007fff
           3506	      1749	00100e9c	00078693	addi	x13,x15,0	 x15:0x001378d8 x13=0x001378d8
           3508	      1750	00100ea0	00038713	addi	x14,x7,0	  x7:0x00137960 x14=0x00137960
           3510	      1751	00100ea4	00028793	addi	x15,x5,0	  x5:0x001378e0 x15=0x001378e0
           3512	      1752	00100ea8	00878293	addi	x5,x15,8	 x15:0x001378e0  x5=0x001378e8
           3514	      1753	00100eac	00150513	addi	x10,x10,1	 x10:0x0000001b x10=0x0000001c
           3516	      1754	00100eb0	10c2f463	bgeu	x5,x12,100fb8	  x5:0x001378e8 x12:0x001378e8
           3520	      1756	00100fb8	0006a603	lw	x12,0(x13)	 x13:0x001378d8 x12=0x001378d0 PA:0x001378d8 load:0x001378d0
           3524	      1758	00100fbc	06060c63	beq	x12,x0,101034	 x12:0x001378d0  x0:0x00000000
           3530	      1761	00100fc0	20000793	addi	x15,x0,512	  x0:0x00000000 x15=0x00000200
